ARM GAS  C:\Users\diego\AppData\Local\Temp\cclKLNZe.s 			page 1


   1              		.syntax unified
   2              		.cpu cortex-m3
   3              		.fpu softvfp
   4              		.eabi_attribute 20, 1
   5              		.eabi_attribute 21, 1
   6              		.eabi_attribute 23, 3
   7              		.eabi_attribute 24, 1
   8              		.eabi_attribute 25, 1
   9              		.eabi_attribute 26, 1
  10              		.eabi_attribute 30, 1
  11              		.eabi_attribute 34, 1
  12              		.eabi_attribute 18, 4
  13              		.thumb
  14              		.syntax unified
  15              		.file	"aux_functions.c"
  16              		.text
  17              	.Ltext0:
  18              		.cfi_sections	.debug_frame
  19              		.global	__aeabi_fcmpeq
  20              		.global	__aeabi_fsub
  21              		.global	__aeabi_fmul
  22              		.section	.text.powf,"ax",%progbits
  23              		.align	2
  24              		.global	powf
  25              		.thumb
  26              		.thumb_func
  27              		.type	powf, %function
  28              	powf:
  29              	.LFB63:
  30              		.file 1 "aux_functions.c"
   1:aux_functions.c **** /* ========================================
   2:aux_functions.c ****  *
   3:aux_functions.c ****  * Copyright YOUR COMPANY, THE YEAR
   4:aux_functions.c ****  * All Rights Reserved
   5:aux_functions.c ****  * UNPUBLISHED, LICENSED SOFTWARE.
   6:aux_functions.c ****  *
   7:aux_functions.c ****  * CONFIDENTIAL AND PROPRIETARY INFORMATION
   8:aux_functions.c ****  * WHICH IS THE PROPERTY OF your company.
   9:aux_functions.c ****  *
  10:aux_functions.c ****  * ========================================
  11:aux_functions.c **** */
  12:aux_functions.c **** 
  13:aux_functions.c **** #include "aux_functions.h"
  14:aux_functions.c **** 
  15:aux_functions.c **** float powf(float b, float e) {
  31              		.loc 1 15 0
  32              		.cfi_startproc
  33              		@ args = 0, pretend = 0, frame = 0
  34              		@ frame_needed = 0, uses_anonymous_args = 0
  35              	.LVL0:
  36 0000 38B5     		push	{r3, r4, r5, lr}
  37              		.cfi_def_cfa_offset 16
  38              		.cfi_offset 3, -16
  39              		.cfi_offset 4, -12
  40              		.cfi_offset 5, -8
  41              		.cfi_offset 14, -4
  42 0002 0446     		mov	r4, r0
ARM GAS  C:\Users\diego\AppData\Local\Temp\cclKLNZe.s 			page 2


  43 0004 0D46     		mov	r5, r1
  16:aux_functions.c ****     if (e == 1.0f)
  44              		.loc 1 16 0
  45 0006 4FF07E51 		mov	r1, #1065353216
  46              	.LVL1:
  47 000a 2846     		mov	r0, r5
  48              	.LVL2:
  49 000c FFF7FEFF 		bl	__aeabi_fcmpeq
  50              	.LVL3:
  51 0010 68B9     		cbnz	r0, .L3
  17:aux_functions.c ****         return b;
  18:aux_functions.c ****     else {
  19:aux_functions.c ****         return b * powf(b, e - 1.0f);
  52              		.loc 1 19 0
  53 0012 4FF07E51 		mov	r1, #1065353216
  54 0016 2846     		mov	r0, r5
  55 0018 FFF7FEFF 		bl	__aeabi_fsub
  56              	.LVL4:
  57 001c 0146     		mov	r1, r0
  58 001e 2046     		mov	r0, r4
  59 0020 FFF7FEFF 		bl	powf
  60              	.LVL5:
  61 0024 0146     		mov	r1, r0
  62 0026 2046     		mov	r0, r4
  63 0028 FFF7FEFF 		bl	__aeabi_fmul
  64              	.LVL6:
  65 002c 38BD     		pop	{r3, r4, r5, pc}
  66              	.LVL7:
  67              	.L3:
  17:aux_functions.c ****         return b;
  68              		.loc 1 17 0
  69 002e 2046     		mov	r0, r4
  20:aux_functions.c ****     }
  21:aux_functions.c **** }
  70              		.loc 1 21 0
  71 0030 38BD     		pop	{r3, r4, r5, pc}
  72              		.cfi_endproc
  73              	.LFE63:
  74              		.size	powf, .-powf
  75              		.global	__aeabi_f2iz
  76              		.global	__aeabi_fcmpgt
  77              		.global	__aeabi_i2f
  78              		.global	__aeabi_ui2f
  79 0032 00BF     		.section	.text.float2string,"ax",%progbits
  80              		.align	2
  81              		.global	float2string
  82              		.thumb
  83              		.thumb_func
  84              		.type	float2string, %function
  85              	float2string:
  86              	.LFB64:
  22:aux_functions.c **** 
  23:aux_functions.c **** void float2string(float number, char string[], uint8 precision) {
  87              		.loc 1 23 0
  88              		.cfi_startproc
  89              		@ args = 0, pretend = 0, frame = 0
  90              		@ frame_needed = 0, uses_anonymous_args = 0
ARM GAS  C:\Users\diego\AppData\Local\Temp\cclKLNZe.s 			page 3


  91              	.LVL8:
  92 0000 F8B5     		push	{r3, r4, r5, r6, r7, lr}
  93              		.cfi_def_cfa_offset 24
  94              		.cfi_offset 3, -24
  95              		.cfi_offset 4, -20
  96              		.cfi_offset 5, -16
  97              		.cfi_offset 6, -12
  98              		.cfi_offset 7, -8
  99              		.cfi_offset 14, -4
 100 0002 0546     		mov	r5, r0
 101 0004 0E46     		mov	r6, r1
 102 0006 1746     		mov	r7, r2
  24:aux_functions.c ****     int characteristic = (int)number;
 103              		.loc 1 24 0
 104 0008 FFF7FEFF 		bl	__aeabi_f2iz
 105              	.LVL9:
 106 000c 0446     		mov	r4, r0
 107              	.LVL10:
  25:aux_functions.c ****     float mantissa =
  26:aux_functions.c ****         (number > 0 ? number - (float)characteristic : -number + (float)characteristic);
 108              		.loc 1 26 0
 109 000e 0021     		movs	r1, #0
 110 0010 2846     		mov	r0, r5
 111              	.LVL11:
 112 0012 FFF7FEFF 		bl	__aeabi_fcmpgt
 113              	.LVL12:
 114 0016 40B1     		cbz	r0, .L10
 115              		.loc 1 26 0 is_stmt 0 discriminator 1
 116 0018 2046     		mov	r0, r4
 117 001a FFF7FEFF 		bl	__aeabi_i2f
 118              	.LVL13:
 119 001e 0146     		mov	r1, r0
 120 0020 2846     		mov	r0, r5
 121 0022 FFF7FEFF 		bl	__aeabi_fsub
 122              	.LVL14:
 123 0026 0546     		mov	r5, r0
 124              	.LVL15:
 125 0028 06E0     		b	.L8
 126              	.LVL16:
 127              	.L10:
 128              		.loc 1 26 0 discriminator 2
 129 002a 2046     		mov	r0, r4
 130 002c FFF7FEFF 		bl	__aeabi_i2f
 131              	.LVL17:
 132 0030 2946     		mov	r1, r5
 133 0032 FFF7FEFF 		bl	__aeabi_fsub
 134              	.LVL18:
 135 0036 0546     		mov	r5, r0
 136              	.LVL19:
 137              	.L8:
  27:aux_functions.c ****     int uint_mantissa =
  28:aux_functions.c ****         (int)(powf(10.0f, (float)precision) * mantissa);
 138              		.loc 1 28 0 is_stmt 1
 139 0038 3846     		mov	r0, r7
 140 003a FFF7FEFF 		bl	__aeabi_ui2f
 141              	.LVL20:
 142 003e 0146     		mov	r1, r0
ARM GAS  C:\Users\diego\AppData\Local\Temp\cclKLNZe.s 			page 4


 143 0040 0748     		ldr	r0, .L12
 144 0042 FFF7FEFF 		bl	powf
 145              	.LVL21:
 146 0046 0146     		mov	r1, r0
 147 0048 2846     		mov	r0, r5
 148 004a FFF7FEFF 		bl	__aeabi_fmul
 149              	.LVL22:
  27:aux_functions.c ****     int uint_mantissa =
 150              		.loc 1 27 0
 151 004e FFF7FEFF 		bl	__aeabi_f2iz
 152              	.LVL23:
  29:aux_functions.c ****        
  30:aux_functions.c ****     sprintf(string, "%d.%d\0", characteristic, uint_mantissa);
 153              		.loc 1 30 0
 154 0052 0346     		mov	r3, r0
 155 0054 2246     		mov	r2, r4
 156 0056 0349     		ldr	r1, .L12+4
 157 0058 3046     		mov	r0, r6
 158              	.LVL24:
 159 005a FFF7FEFF 		bl	sprintf
 160              	.LVL25:
 161 005e F8BD     		pop	{r3, r4, r5, r6, r7, pc}
 162              	.LVL26:
 163              	.L13:
 164              		.align	2
 165              	.L12:
 166 0060 00002041 		.word	1092616192
 167 0064 00000000 		.word	.LANCHOR0
 168              		.cfi_endproc
 169              	.LFE64:
 170              		.size	float2string, .-float2string
 171              		.section	.text.nova,"ax",%progbits
 172              		.align	2
 173              		.global	nova
 174              		.thumb
 175              		.thumb_func
 176              		.type	nova, %function
 177              	nova:
 178              	.LFB65:
  31:aux_functions.c **** }
  32:aux_functions.c **** 
  33:aux_functions.c **** void nova(float n, float *vec, uint8 tam) {
 179              		.loc 1 33 0
 180              		.cfi_startproc
 181              		@ args = 0, pretend = 0, frame = 0
 182              		@ frame_needed = 0, uses_anonymous_args = 0
 183              		@ link register save eliminated.
 184              	.LVL27:
 185 0000 10B4     		push	{r4}
 186              		.cfi_def_cfa_offset 4
 187              		.cfi_offset 4, -4
 188              	.LVL28:
 189              	.LBB2:
  34:aux_functions.c ****     for (int i = 0; i < tam - 1; i++)
 190              		.loc 1 34 0
 191 0002 0023     		movs	r3, #0
 192 0004 05E0     		b	.L15
ARM GAS  C:\Users\diego\AppData\Local\Temp\cclKLNZe.s 			page 5


 193              	.LVL29:
 194              	.L16:
  35:aux_functions.c ****         vec[i + 1] = vec[i];
 195              		.loc 1 35 0 discriminator 3
 196 0006 5C1C     		adds	r4, r3, #1
 197 0008 51F82330 		ldr	r3, [r1, r3, lsl #2]	@ float
 198              	.LVL30:
 199 000c 41F82430 		str	r3, [r1, r4, lsl #2]	@ float
  34:aux_functions.c ****     for (int i = 0; i < tam - 1; i++)
 200              		.loc 1 34 0 discriminator 3
 201 0010 2346     		mov	r3, r4
 202              	.LVL31:
 203              	.L15:
  34:aux_functions.c ****     for (int i = 0; i < tam - 1; i++)
 204              		.loc 1 34 0 is_stmt 0 discriminator 1
 205 0012 541E     		subs	r4, r2, #1
 206 0014 A342     		cmp	r3, r4
 207 0016 F6DB     		blt	.L16
 208              	.LBE2:
  36:aux_functions.c ****         
  37:aux_functions.c ****     vec[0] = n;
 209              		.loc 1 37 0 is_stmt 1
 210 0018 0860     		str	r0, [r1]	@ float
  38:aux_functions.c **** }
 211              		.loc 1 38 0
 212 001a 10BC     		pop	{r4}
 213              		.cfi_restore 4
 214              		.cfi_def_cfa_offset 0
 215 001c 7047     		bx	lr
 216              		.cfi_endproc
 217              	.LFE65:
 218              		.size	nova, .-nova
 219              		.global	__aeabi_fadd
 220              		.global	__aeabi_fdiv
 221 001e 00BF     		.section	.text.media,"ax",%progbits
 222              		.align	2
 223              		.global	media
 224              		.thumb
 225              		.thumb_func
 226              		.type	media, %function
 227              	media:
 228              	.LFB66:
  39:aux_functions.c **** 
  40:aux_functions.c **** float media(float *vec, uint8 tam) {
 229              		.loc 1 40 0
 230              		.cfi_startproc
 231              		@ args = 0, pretend = 0, frame = 0
 232              		@ frame_needed = 0, uses_anonymous_args = 0
 233              	.LVL32:
 234 0000 F8B5     		push	{r3, r4, r5, r6, r7, lr}
 235              		.cfi_def_cfa_offset 24
 236              		.cfi_offset 3, -24
 237              		.cfi_offset 4, -20
 238              		.cfi_offset 5, -16
 239              		.cfi_offset 6, -12
 240              		.cfi_offset 7, -8
 241              		.cfi_offset 14, -4
ARM GAS  C:\Users\diego\AppData\Local\Temp\cclKLNZe.s 			page 6


 242 0002 0746     		mov	r7, r0
 243 0004 0D46     		mov	r5, r1
 244              	.LVL33:
 245              	.LBB3:
  41:aux_functions.c ****     float soma = 0.0;
  42:aux_functions.c ****     
  43:aux_functions.c ****     for (int i = 0; i < tam; i++)
 246              		.loc 1 43 0
 247 0006 0024     		movs	r4, #0
 248              	.LBE3:
  41:aux_functions.c ****     float soma = 0.0;
 249              		.loc 1 41 0
 250 0008 0026     		movs	r6, #0
 251              	.LBB4:
 252              		.loc 1 43 0
 253 000a 06E0     		b	.L19
 254              	.LVL34:
 255              	.L20:
  44:aux_functions.c ****         soma += vec[i];
 256              		.loc 1 44 0 discriminator 3
 257 000c 57F82410 		ldr	r1, [r7, r4, lsl #2]	@ float
 258 0010 3046     		mov	r0, r6
 259 0012 FFF7FEFF 		bl	__aeabi_fadd
 260              	.LVL35:
 261 0016 0646     		mov	r6, r0
 262              	.LVL36:
  43:aux_functions.c ****         soma += vec[i];
 263              		.loc 1 43 0 discriminator 3
 264 0018 0134     		adds	r4, r4, #1
 265              	.LVL37:
 266              	.L19:
  43:aux_functions.c ****         soma += vec[i];
 267              		.loc 1 43 0 is_stmt 0 discriminator 1
 268 001a 2846     		mov	r0, r5
 269 001c AC42     		cmp	r4, r5
 270 001e F5DB     		blt	.L20
 271              	.LBE4:
  45:aux_functions.c ****         
  46:aux_functions.c ****     return (soma / tam);
 272              		.loc 1 46 0 is_stmt 1
 273 0020 FFF7FEFF 		bl	__aeabi_i2f
 274              	.LVL38:
 275 0024 0146     		mov	r1, r0
 276 0026 3046     		mov	r0, r6
 277 0028 FFF7FEFF 		bl	__aeabi_fdiv
 278              	.LVL39:
  47:aux_functions.c **** }
 279              		.loc 1 47 0
 280 002c F8BD     		pop	{r3, r4, r5, r6, r7, pc}
 281              		.cfi_endproc
 282              	.LFE66:
 283              		.size	media, .-media
 284 002e 00BF     		.section	.rodata
 285              		.align	2
 286              		.set	.LANCHOR0,. + 0
 287              	.LC0:
 288 0000 25642E25 		.ascii	"%d.%d\000\000"
ARM GAS  C:\Users\diego\AppData\Local\Temp\cclKLNZe.s 			page 7


 288      640000
 289              		.text
 290              	.Letext0:
 291              		.file 2 "c:\\program files (x86)\\cypress\\psoc creator\\4.3\\psoc creator\\import\\gnu\\arm\\5.4.
 292              		.file 3 "c:\\program files (x86)\\cypress\\psoc creator\\4.3\\psoc creator\\import\\gnu\\arm\\5.4.
 293              		.file 4 "Generated_Source\\PSoC5/cytypes.h"
 294              		.file 5 "<built-in>"
 295              		.file 6 "Generated_Source\\PSoC5/core_cm3.h"