ARM GAS  C:\Users\diego\AppData\Local\Temp\cc5EpoZh.s 			page 1


   1              		.syntax unified
   2              		.cpu cortex-m3
   3              		.fpu softvfp
   4              		.eabi_attribute 20, 1
   5              		.eabi_attribute 21, 1
   6              		.eabi_attribute 23, 3
   7              		.eabi_attribute 24, 1
   8              		.eabi_attribute 25, 1
   9              		.eabi_attribute 26, 1
  10              		.eabi_attribute 30, 1
  11              		.eabi_attribute 34, 1
  12              		.eabi_attribute 18, 4
  13              		.thumb
  14              		.syntax unified
  15              		.file	"CAN_TX_RX_func.c"
  16              		.text
  17              	.Ltext0:
  18              		.cfi_sections	.debug_frame
  19              		.section	.text.CAN_SendMsg,"ax",%progbits
  20              		.align	2
  21              		.global	CAN_SendMsg
  22              		.thumb
  23              		.thumb_func
  24              		.type	CAN_SendMsg, %function
  25              	CAN_SendMsg:
  26              	.LFB63:
  27              		.file 1 "Generated_Source\\PSoC5\\CAN_TX_RX_func.c"
   1:Generated_Source\PSoC5/CAN_TX_RX_func.c **** /*******************************************************************************
   2:Generated_Source\PSoC5/CAN_TX_RX_func.c **** * File Name: CAN_TX_RX_func.c
   3:Generated_Source\PSoC5/CAN_TX_RX_func.c **** * Version 3.0
   4:Generated_Source\PSoC5/CAN_TX_RX_func.c **** *
   5:Generated_Source\PSoC5/CAN_TX_RX_func.c **** * Description:
   6:Generated_Source\PSoC5/CAN_TX_RX_func.c **** *  There are functions process "Full" Receive and Transmit mailboxes:
   7:Generated_Source\PSoC5/CAN_TX_RX_func.c **** *     - CAN_SendMsg0-7();
   8:Generated_Source\PSoC5/CAN_TX_RX_func.c **** *     - CAN_ReceiveMsg0-15();
   9:Generated_Source\PSoC5/CAN_TX_RX_func.c **** *  Transmission of message, and receive routine for "Basic" mailboxes:
  10:Generated_Source\PSoC5/CAN_TX_RX_func.c **** *     - CAN_SendMsg();
  11:Generated_Source\PSoC5/CAN_TX_RX_func.c **** *     - CAN_TxCancel();
  12:Generated_Source\PSoC5/CAN_TX_RX_func.c **** *     - CAN_ReceiveMsg();
  13:Generated_Source\PSoC5/CAN_TX_RX_func.c **** *
  14:Generated_Source\PSoC5/CAN_TX_RX_func.c **** *  Note:
  15:Generated_Source\PSoC5/CAN_TX_RX_func.c **** *   None
  16:Generated_Source\PSoC5/CAN_TX_RX_func.c **** *
  17:Generated_Source\PSoC5/CAN_TX_RX_func.c **** ********************************************************************************
  18:Generated_Source\PSoC5/CAN_TX_RX_func.c **** * Copyright 2008-2015, Cypress Semiconductor Corporation.  All rights reserved.
  19:Generated_Source\PSoC5/CAN_TX_RX_func.c **** * You may use this file only in accordance with the license, terms, conditions,
  20:Generated_Source\PSoC5/CAN_TX_RX_func.c **** * disclaimers, and limitations in the end user license agreement accompanying
  21:Generated_Source\PSoC5/CAN_TX_RX_func.c **** * the software package with which this file was provided.
  22:Generated_Source\PSoC5/CAN_TX_RX_func.c **** *******************************************************************************/
  23:Generated_Source\PSoC5/CAN_TX_RX_func.c **** 
  24:Generated_Source\PSoC5/CAN_TX_RX_func.c **** #include "CAN.h"
  25:Generated_Source\PSoC5/CAN_TX_RX_func.c **** #include "cyapicallbacks.h"
  26:Generated_Source\PSoC5/CAN_TX_RX_func.c **** 
  27:Generated_Source\PSoC5/CAN_TX_RX_func.c **** /* `#START TX_RX_FUNCTION` */
  28:Generated_Source\PSoC5/CAN_TX_RX_func.c **** #include "aux_functions.h"
  29:Generated_Source\PSoC5/CAN_TX_RX_func.c **** 
  30:Generated_Source\PSoC5/CAN_TX_RX_func.c **** extern uint8 can_msg_tx[8], received, is_positive[2];
ARM GAS  C:\Users\diego\AppData\Local\Temp\cc5EpoZh.s 			page 2


  31:Generated_Source\PSoC5/CAN_TX_RX_func.c **** extern union Data goal_dist[2], closest_obst[2], action[2];
  32:Generated_Source\PSoC5/CAN_TX_RX_func.c **** /* `#END` */
  33:Generated_Source\PSoC5/CAN_TX_RX_func.c **** 
  34:Generated_Source\PSoC5/CAN_TX_RX_func.c **** 
  35:Generated_Source\PSoC5/CAN_TX_RX_func.c **** /*******************************************************************************
  36:Generated_Source\PSoC5/CAN_TX_RX_func.c **** * FUNCTION NAME:   CAN_SendMsg
  37:Generated_Source\PSoC5/CAN_TX_RX_func.c **** ********************************************************************************
  38:Generated_Source\PSoC5/CAN_TX_RX_func.c **** *
  39:Generated_Source\PSoC5/CAN_TX_RX_func.c **** * Summary:
  40:Generated_Source\PSoC5/CAN_TX_RX_func.c **** *  This function is Send Message from one of Basic mailboxes. The function loops
  41:Generated_Source\PSoC5/CAN_TX_RX_func.c **** *  through the transmit message buffer designed as Basic CAN mailboxes for the
  42:Generated_Source\PSoC5/CAN_TX_RX_func.c **** *  first free available and sends from it. The number of retries is limited.
  43:Generated_Source\PSoC5/CAN_TX_RX_func.c **** *
  44:Generated_Source\PSoC5/CAN_TX_RX_func.c **** * Parameters:
  45:Generated_Source\PSoC5/CAN_TX_RX_func.c **** *  message: The pointer to a structure that contains all required data to send
  46:Generated_Source\PSoC5/CAN_TX_RX_func.c **** *           messages.
  47:Generated_Source\PSoC5/CAN_TX_RX_func.c **** *
  48:Generated_Source\PSoC5/CAN_TX_RX_func.c **** * Return:
  49:Generated_Source\PSoC5/CAN_TX_RX_func.c **** *  Indication if message has been sent.
  50:Generated_Source\PSoC5/CAN_TX_RX_func.c **** *   Define                             Description
  51:Generated_Source\PSoC5/CAN_TX_RX_func.c **** *    CYRET_SUCCESS                      The function passed successfully
  52:Generated_Source\PSoC5/CAN_TX_RX_func.c **** *    CAN_FAIL              The function failed
  53:Generated_Source\PSoC5/CAN_TX_RX_func.c **** *
  54:Generated_Source\PSoC5/CAN_TX_RX_func.c **** *******************************************************************************/
  55:Generated_Source\PSoC5/CAN_TX_RX_func.c **** uint8 CAN_SendMsg(const CAN_TX_MSG *message) 
  56:Generated_Source\PSoC5/CAN_TX_RX_func.c **** {
  28              		.loc 1 56 0
  29              		.cfi_startproc
  30              		@ args = 0, pretend = 0, frame = 0
  31              		@ frame_needed = 0, uses_anonymous_args = 0
  32              	.LVL0:
  33 0000 F0B5     		push	{r4, r5, r6, r7, lr}
  34              		.cfi_def_cfa_offset 20
  35              		.cfi_offset 4, -20
  36              		.cfi_offset 5, -16
  37              		.cfi_offset 6, -12
  38              		.cfi_offset 7, -8
  39              		.cfi_offset 14, -4
  40              	.LVL1:
  57:Generated_Source\PSoC5/CAN_TX_RX_func.c ****     uint8 i, j, shift;
  58:Generated_Source\PSoC5/CAN_TX_RX_func.c ****     uint8 retry = 0u;
  59:Generated_Source\PSoC5/CAN_TX_RX_func.c ****     uint8 result = CAN_FAIL;
  41              		.loc 1 59 0
  42 0002 0121     		movs	r1, #1
  58:Generated_Source\PSoC5/CAN_TX_RX_func.c ****     uint8 result = CAN_FAIL;
  43              		.loc 1 58 0
  44 0004 0026     		movs	r6, #0
  60:Generated_Source\PSoC5/CAN_TX_RX_func.c ****     uint32 regTemp;
  61:Generated_Source\PSoC5/CAN_TX_RX_func.c **** 
  62:Generated_Source\PSoC5/CAN_TX_RX_func.c ****     while (retry < CAN_RETRY_NUMBER)
  45              		.loc 1 62 0
  46 0006 5DE0     		b	.L2
  47              	.LVL2:
  48              	.L16:
  63:Generated_Source\PSoC5/CAN_TX_RX_func.c ****     {
  64:Generated_Source\PSoC5/CAN_TX_RX_func.c ****         shift = 1u;    /* Start from first mailbox */
  65:Generated_Source\PSoC5/CAN_TX_RX_func.c ****         for (i = 0u; i < CAN_NUMBER_OF_TX_MAILBOXES; i++)
ARM GAS  C:\Users\diego\AppData\Local\Temp\cc5EpoZh.s 			page 3


  66:Generated_Source\PSoC5/CAN_TX_RX_func.c ****         {
  67:Generated_Source\PSoC5/CAN_TX_RX_func.c ****             /* Find Basic TX mailboxes */
  68:Generated_Source\PSoC5/CAN_TX_RX_func.c ****             if ((CAN_TX_MAILBOX_TYPE & shift) == 0u)
  49              		.loc 1 68 0
  50 0008 17F0030F 		tst	r7, #3
  51 000c 4DD1     		bne	.L3
  69:Generated_Source\PSoC5/CAN_TX_RX_func.c ****             {
  70:Generated_Source\PSoC5/CAN_TX_RX_func.c ****                 /* Find free mailbox */
  71:Generated_Source\PSoC5/CAN_TX_RX_func.c ****                 #if (CY_PSOC3 || CY_PSOC5)
  72:Generated_Source\PSoC5/CAN_TX_RX_func.c ****                     if ((CAN_BUF_SR_REG.byte[2] & shift) == 0u)
  52              		.loc 1 72 0
  53 000e 2F4B     		ldr	r3, .L22
  54 0010 9B78     		ldrb	r3, [r3, #2]	@ zero_extendqisi2
  55 0012 3B42     		tst	r3, r7
  56 0014 49D1     		bne	.L3
  57              	.LVL3:
  73:Generated_Source\PSoC5/CAN_TX_RX_func.c ****                 #else  /* CY_PSOC4 */
  74:Generated_Source\PSoC5/CAN_TX_RX_func.c ****                     if ((CAN_BUF_SR_REG &
  75:Generated_Source\PSoC5/CAN_TX_RX_func.c ****                         (uint32) ((uint32) shift << CAN_TWO_BYTE_OFFSET)) == 0u)
  76:Generated_Source\PSoC5/CAN_TX_RX_func.c ****                 #endif /* CY_PSOC3 || CY_PSOC5 */
  77:Generated_Source\PSoC5/CAN_TX_RX_func.c ****                     {
  78:Generated_Source\PSoC5/CAN_TX_RX_func.c ****                         regTemp = 0u;
  79:Generated_Source\PSoC5/CAN_TX_RX_func.c **** 
  80:Generated_Source\PSoC5/CAN_TX_RX_func.c ****                         /* Set message parameters */
  81:Generated_Source\PSoC5/CAN_TX_RX_func.c ****                         if (message->rtr != CAN_STANDARD_MESSAGE)
  58              		.loc 1 81 0
  59 0016 0379     		ldrb	r3, [r0, #4]	@ zero_extendqisi2
  60 0018 0BB1     		cbz	r3, .L4
  82:Generated_Source\PSoC5/CAN_TX_RX_func.c ****                         {
  83:Generated_Source\PSoC5/CAN_TX_RX_func.c ****                             regTemp = CAN_TX_RTR_MASK;    /* RTR message Enable */
  61              		.loc 1 83 0
  62 001a 4FF40013 		mov	r3, #2097152
  63              	.L4:
  64              	.LVL4:
  84:Generated_Source\PSoC5/CAN_TX_RX_func.c ****                         }
  85:Generated_Source\PSoC5/CAN_TX_RX_func.c **** 
  86:Generated_Source\PSoC5/CAN_TX_RX_func.c ****                         if (message->ide == CAN_STANDARD_MESSAGE)
  65              		.loc 1 86 0
  66 001e 4179     		ldrb	r1, [r0, #5]	@ zero_extendqisi2
  67              	.LVL5:
  68 0020 31B9     		cbnz	r1, .L5
  87:Generated_Source\PSoC5/CAN_TX_RX_func.c ****                         {
  88:Generated_Source\PSoC5/CAN_TX_RX_func.c ****                             CAN_SET_TX_ID_STANDARD_MSG(i, message->id);
  69              		.loc 1 88 0
  70 0022 2B49     		ldr	r1, .L22+4
  71 0024 01EB0211 		add	r1, r1, r2, lsl #4
  72 0028 0468     		ldr	r4, [r0]
  73 002a 6405     		lsls	r4, r4, #21
  74 002c 4C60     		str	r4, [r1, #4]
  75 002e 07E0     		b	.L6
  76              	.L5:
  89:Generated_Source\PSoC5/CAN_TX_RX_func.c ****                         }
  90:Generated_Source\PSoC5/CAN_TX_RX_func.c ****                         else
  91:Generated_Source\PSoC5/CAN_TX_RX_func.c ****                         {
  92:Generated_Source\PSoC5/CAN_TX_RX_func.c ****                             regTemp |= CAN_TX_IDE_MASK;
  77              		.loc 1 92 0
  78 0030 43F48013 		orr	r3, r3, #1048576
ARM GAS  C:\Users\diego\AppData\Local\Temp\cc5EpoZh.s 			page 4


  79              	.LVL6:
  93:Generated_Source\PSoC5/CAN_TX_RX_func.c ****                             CAN_SET_TX_ID_EXTENDED_MSG(i, message->id);
  80              		.loc 1 93 0
  81 0034 2649     		ldr	r1, .L22+4
  82 0036 01EB0211 		add	r1, r1, r2, lsl #4
  83 003a 0468     		ldr	r4, [r0]
  84 003c E400     		lsls	r4, r4, #3
  85 003e 4C60     		str	r4, [r1, #4]
  86              	.L6:
  94:Generated_Source\PSoC5/CAN_TX_RX_func.c ****                         }
  95:Generated_Source\PSoC5/CAN_TX_RX_func.c **** 
  96:Generated_Source\PSoC5/CAN_TX_RX_func.c ****                         if (message->dlc < CAN_TX_DLC_MAX_VALUE)
  87              		.loc 1 96 0
  88 0040 90F806E0 		ldrb	lr, [r0, #6]	@ zero_extendqisi2
  89 0044 BEF1070F 		cmp	lr, #7
  90 0048 02D8     		bhi	.L7
  97:Generated_Source\PSoC5/CAN_TX_RX_func.c ****                         {
  98:Generated_Source\PSoC5/CAN_TX_RX_func.c ****                             regTemp |= ((uint32) message->dlc) << CAN_TWO_BYTE_OFFSET;
  91              		.loc 1 98 0
  92 004a 43EA0E4E 		orr	lr, r3, lr, lsl #16
  93              	.LVL7:
  94 004e 01E0     		b	.L8
  95              	.LVL8:
  96              	.L7:
  99:Generated_Source\PSoC5/CAN_TX_RX_func.c ****                         }
 100:Generated_Source\PSoC5/CAN_TX_RX_func.c ****                         else
 101:Generated_Source\PSoC5/CAN_TX_RX_func.c ****                         {
 102:Generated_Source\PSoC5/CAN_TX_RX_func.c ****                             regTemp |= CAN_TX_DLC_UPPER_VALUE;
  97              		.loc 1 102 0
  98 0050 43F4002E 		orr	lr, r3, #524288
  99              	.LVL9:
 100              	.L8:
 103:Generated_Source\PSoC5/CAN_TX_RX_func.c ****                         }
 104:Generated_Source\PSoC5/CAN_TX_RX_func.c **** 
 105:Generated_Source\PSoC5/CAN_TX_RX_func.c ****                         if (message->irq != CAN_TRANSMIT_INT_DISABLE)
 101              		.loc 1 105 0
 102 0054 C379     		ldrb	r3, [r0, #7]	@ zero_extendqisi2
 103 0056 0BB1     		cbz	r3, .L9
 106:Generated_Source\PSoC5/CAN_TX_RX_func.c ****                         {
 107:Generated_Source\PSoC5/CAN_TX_RX_func.c ****                             regTemp |= CAN_TX_INT_ENABLE_MASK;    /* Transmit Interrupt Enable */
 104              		.loc 1 107 0
 105 0058 4EF0040E 		orr	lr, lr, #4
 106              	.LVL10:
 107              	.L9:
 108:Generated_Source\PSoC5/CAN_TX_RX_func.c ****                         }
 109:Generated_Source\PSoC5/CAN_TX_RX_func.c **** 
 110:Generated_Source\PSoC5/CAN_TX_RX_func.c ****                         for (j = 0u; (j < message->dlc) && (j < CAN_TX_DLC_MAX_VALUE); j++)
 108              		.loc 1 110 0
 109 005c 0023     		movs	r3, #0
 110 005e 0FE0     		b	.L10
 111              	.LVL11:
 112              	.L14:
 111:Generated_Source\PSoC5/CAN_TX_RX_func.c ****                         {
 112:Generated_Source\PSoC5/CAN_TX_RX_func.c ****                             #if (CY_PSOC3 || CY_PSOC5)
 113:Generated_Source\PSoC5/CAN_TX_RX_func.c ****                                 CAN_TX_DATA_BYTE(i, j) = message->msg->byte[j];
 113              		.loc 1 113 0
 114 0060 1B49     		ldr	r1, .L22+4
ARM GAS  C:\Users\diego\AppData\Local\Temp\cc5EpoZh.s 			page 5


 115 0062 01EB0214 		add	r4, r1, r2, lsl #4
 116 0066 032B     		cmp	r3, #3
 117 0068 02D9     		bls	.L11
 118              		.loc 1 113 0 is_stmt 0 discriminator 1
 119 006a C3F10B01 		rsb	r1, r3, #11
 120 006e 01E0     		b	.L12
 121              	.L11:
 122              		.loc 1 113 0 discriminator 2
 123 0070 C3F10301 		rsb	r1, r3, #3
 124              	.L12:
 125              		.loc 1 113 0 discriminator 4
 126 0074 8568     		ldr	r5, [r0, #8]
 127 0076 ED5C     		ldrb	r5, [r5, r3]	@ zero_extendqisi2
 128 0078 2144     		add	r1, r1, r4
 129 007a 0D72     		strb	r5, [r1, #8]
 110:Generated_Source\PSoC5/CAN_TX_RX_func.c ****                         {
 130              		.loc 1 110 0 is_stmt 1 discriminator 4
 131 007c 0133     		adds	r3, r3, #1
 132              	.LVL12:
 133 007e DBB2     		uxtb	r3, r3
 134              	.LVL13:
 135              	.L10:
 110:Generated_Source\PSoC5/CAN_TX_RX_func.c ****                         {
 136              		.loc 1 110 0 is_stmt 0 discriminator 2
 137 0080 8179     		ldrb	r1, [r0, #6]	@ zero_extendqisi2
 138 0082 8B42     		cmp	r3, r1
 139 0084 01D2     		bcs	.L13
 110:Generated_Source\PSoC5/CAN_TX_RX_func.c ****                         {
 140              		.loc 1 110 0 discriminator 3
 141 0086 072B     		cmp	r3, #7
 142 0088 EAD9     		bls	.L14
 143              	.L13:
 114:Generated_Source\PSoC5/CAN_TX_RX_func.c ****                             #else /* CY_PSOC4 */
 115:Generated_Source\PSoC5/CAN_TX_RX_func.c ****                                 CAN_TX_DATA_BYTE(i, j, message->msg->byte[j]);
 116:Generated_Source\PSoC5/CAN_TX_RX_func.c ****                             #endif /* CY_PSOC3 || CY_PSOC5 */
 117:Generated_Source\PSoC5/CAN_TX_RX_func.c ****                         }
 118:Generated_Source\PSoC5/CAN_TX_RX_func.c **** 
 119:Generated_Source\PSoC5/CAN_TX_RX_func.c ****                         /* Disable isr */
 120:Generated_Source\PSoC5/CAN_TX_RX_func.c ****     CyIntDisable(CAN_ISR_NUMBER);
 144              		.loc 1 120 0 is_stmt 1
 145 008a 4FF48034 		mov	r4, #65536
 146 008e 114B     		ldr	r3, .L22+8
 147              	.LVL14:
 148 0090 1C60     		str	r4, [r3]
 121:Generated_Source\PSoC5/CAN_TX_RX_func.c **** 
 122:Generated_Source\PSoC5/CAN_TX_RX_func.c ****                         /* WPN[23] and WPN[3] set to 1 for write to CAN Control reg */
 123:Generated_Source\PSoC5/CAN_TX_RX_func.c ****                         CY_SET_REG32(CAN_TX_CMD_PTR(i), (regTemp | CAN_TX_WPN_SET));
 149              		.loc 1 123 0
 150 0092 1101     		lsls	r1, r2, #4
 151 0094 0E4D     		ldr	r5, .L22+4
 152 0096 4EF40003 		orr	r3, lr, #8388608
 153 009a 43F00803 		orr	r3, r3, #8
 154 009e 4B51     		str	r3, [r1, r5]
 124:Generated_Source\PSoC5/CAN_TX_RX_func.c **** 
 125:Generated_Source\PSoC5/CAN_TX_RX_func.c ****                         #if (CY_PSOC3 || CY_PSOC5)
 126:Generated_Source\PSoC5/CAN_TX_RX_func.c ****                             CY_SET_REG32(CAN_TX_CMD_PTR(i), CAN_SEND_MESSAGE);
 155              		.loc 1 126 0
ARM GAS  C:\Users\diego\AppData\Local\Temp\cc5EpoZh.s 			page 6


 156 00a0 0123     		movs	r3, #1
 157 00a2 4B51     		str	r3, [r1, r5]
 127:Generated_Source\PSoC5/CAN_TX_RX_func.c ****                         #else /* CY_PSOC4 */
 128:Generated_Source\PSoC5/CAN_TX_RX_func.c ****                             if (message->sst != CAN_STANDARD_MESSAGE)
 129:Generated_Source\PSoC5/CAN_TX_RX_func.c ****                             {
 130:Generated_Source\PSoC5/CAN_TX_RX_func.c ****                                 /* Single Shot Transmission */
 131:Generated_Source\PSoC5/CAN_TX_RX_func.c ****                                 CAN_TX_CMD_REG(i) |= CAN_SEND_MESSAGE |
 132:Generated_Source\PSoC5/CAN_TX_RX_func.c ****                                 CAN_TX_ABORT_MASK;
 133:Generated_Source\PSoC5/CAN_TX_RX_func.c ****                             }
 134:Generated_Source\PSoC5/CAN_TX_RX_func.c ****                             else
 135:Generated_Source\PSoC5/CAN_TX_RX_func.c ****                             {
 136:Generated_Source\PSoC5/CAN_TX_RX_func.c ****                                 CAN_TX_CMD_REG(i) |= CAN_SEND_MESSAGE;
 137:Generated_Source\PSoC5/CAN_TX_RX_func.c ****                             }
 138:Generated_Source\PSoC5/CAN_TX_RX_func.c ****                         #endif /* CY_PSOC3 || CY_PSOC5 */
 139:Generated_Source\PSoC5/CAN_TX_RX_func.c **** 
 140:Generated_Source\PSoC5/CAN_TX_RX_func.c ****                         /* Enable isr */
 141:Generated_Source\PSoC5/CAN_TX_RX_func.c ****     CyIntEnable(CAN_ISR_NUMBER);
 158              		.loc 1 141 0
 159 00a4 0C4B     		ldr	r3, .L22+12
 160 00a6 1C60     		str	r4, [r3]
 161              	.LVL15:
 142:Generated_Source\PSoC5/CAN_TX_RX_func.c **** 
 143:Generated_Source\PSoC5/CAN_TX_RX_func.c ****                         result = CYRET_SUCCESS;
 162              		.loc 1 143 0
 163 00a8 0021     		movs	r1, #0
 164              	.LVL16:
 165              	.L3:
 144:Generated_Source\PSoC5/CAN_TX_RX_func.c ****                     }
 145:Generated_Source\PSoC5/CAN_TX_RX_func.c ****             }
 146:Generated_Source\PSoC5/CAN_TX_RX_func.c ****             shift <<= 1u;
 166              		.loc 1 146 0
 167 00aa 7B00     		lsls	r3, r7, #1
 168 00ac DFB2     		uxtb	r7, r3
 169              	.LVL17:
 147:Generated_Source\PSoC5/CAN_TX_RX_func.c ****             if (result == CYRET_SUCCESS)
 170              		.loc 1 147 0
 171 00ae 31B1     		cbz	r1, .L15
  65:Generated_Source\PSoC5/CAN_TX_RX_func.c ****         {
 172              		.loc 1 65 0 discriminator 2
 173 00b0 0132     		adds	r2, r2, #1
 174              	.LVL18:
 175 00b2 D2B2     		uxtb	r2, r2
 176              	.LVL19:
 177 00b4 01E0     		b	.L18
 178              	.LVL20:
 179              	.L20:
 180 00b6 0127     		movs	r7, #1
 181 00b8 0022     		movs	r2, #0
 182              	.L18:
 183              	.LVL21:
  65:Generated_Source\PSoC5/CAN_TX_RX_func.c ****         {
 184              		.loc 1 65 0 is_stmt 0 discriminator 1
 185 00ba 072A     		cmp	r2, #7
 186 00bc A4D9     		bls	.L16
 187              	.L15:
 148:Generated_Source\PSoC5/CAN_TX_RX_func.c ****             {
 149:Generated_Source\PSoC5/CAN_TX_RX_func.c ****                 break;
ARM GAS  C:\Users\diego\AppData\Local\Temp\cc5EpoZh.s 			page 7


 150:Generated_Source\PSoC5/CAN_TX_RX_func.c ****             }
 151:Generated_Source\PSoC5/CAN_TX_RX_func.c ****         }
 152:Generated_Source\PSoC5/CAN_TX_RX_func.c ****         if (result == CYRET_SUCCESS)
 188              		.loc 1 152 0 is_stmt 1
 189 00be 19B1     		cbz	r1, .L17
 153:Generated_Source\PSoC5/CAN_TX_RX_func.c ****         {
 154:Generated_Source\PSoC5/CAN_TX_RX_func.c ****             break;
 155:Generated_Source\PSoC5/CAN_TX_RX_func.c ****         }
 156:Generated_Source\PSoC5/CAN_TX_RX_func.c ****         else
 157:Generated_Source\PSoC5/CAN_TX_RX_func.c ****         {
 158:Generated_Source\PSoC5/CAN_TX_RX_func.c ****             retry++;
 190              		.loc 1 158 0
 191 00c0 0136     		adds	r6, r6, #1
 192              	.LVL22:
 193 00c2 F6B2     		uxtb	r6, r6
 194              	.LVL23:
 195              	.L2:
  62:Generated_Source\PSoC5/CAN_TX_RX_func.c ****     {
 196              		.loc 1 62 0
 197 00c4 022E     		cmp	r6, #2
 198 00c6 F6D9     		bls	.L20
 199              	.L17:
 159:Generated_Source\PSoC5/CAN_TX_RX_func.c ****         }
 160:Generated_Source\PSoC5/CAN_TX_RX_func.c ****     }
 161:Generated_Source\PSoC5/CAN_TX_RX_func.c **** 
 162:Generated_Source\PSoC5/CAN_TX_RX_func.c ****     return (result);
 163:Generated_Source\PSoC5/CAN_TX_RX_func.c **** }
 200              		.loc 1 163 0
 201 00c8 0846     		mov	r0, r1
 202              	.LVL24:
 203 00ca F0BD     		pop	{r4, r5, r6, r7, pc}
 204              	.LVL25:
 205              	.L23:
 206              		.align	2
 207              	.L22:
 208 00cc 08A00040 		.word	1073782792
 209 00d0 20A00040 		.word	1073782816
 210 00d4 80E100E0 		.word	-536813184
 211 00d8 00E100E0 		.word	-536813312
 212              		.cfi_endproc
 213              	.LFE63:
 214              		.size	CAN_SendMsg, .-CAN_SendMsg
 215              		.section	.text.CAN_TxCancel,"ax",%progbits
 216              		.align	2
 217              		.global	CAN_TxCancel
 218              		.thumb
 219              		.thumb_func
 220              		.type	CAN_TxCancel, %function
 221              	CAN_TxCancel:
 222              	.LFB64:
 164:Generated_Source\PSoC5/CAN_TX_RX_func.c **** 
 165:Generated_Source\PSoC5/CAN_TX_RX_func.c **** 
 166:Generated_Source\PSoC5/CAN_TX_RX_func.c **** /*******************************************************************************
 167:Generated_Source\PSoC5/CAN_TX_RX_func.c **** * FUNCTION NAME:   CAN_TxCancel
 168:Generated_Source\PSoC5/CAN_TX_RX_func.c **** ********************************************************************************
 169:Generated_Source\PSoC5/CAN_TX_RX_func.c **** *
 170:Generated_Source\PSoC5/CAN_TX_RX_func.c **** * Summary:
ARM GAS  C:\Users\diego\AppData\Local\Temp\cc5EpoZh.s 			page 8


 171:Generated_Source\PSoC5/CAN_TX_RX_func.c **** *  This function cancels transmission of a message that has been queued to be
 172:Generated_Source\PSoC5/CAN_TX_RX_func.c **** *  transmitted. Values between 0 and 7 are valid.
 173:Generated_Source\PSoC5/CAN_TX_RX_func.c **** *
 174:Generated_Source\PSoC5/CAN_TX_RX_func.c **** * Parameters:
 175:Generated_Source\PSoC5/CAN_TX_RX_func.c **** *  bufferId: The mailbox number.
 176:Generated_Source\PSoC5/CAN_TX_RX_func.c **** *
 177:Generated_Source\PSoC5/CAN_TX_RX_func.c **** * Return:
 178:Generated_Source\PSoC5/CAN_TX_RX_func.c **** *  None.
 179:Generated_Source\PSoC5/CAN_TX_RX_func.c **** *
 180:Generated_Source\PSoC5/CAN_TX_RX_func.c **** *******************************************************************************/
 181:Generated_Source\PSoC5/CAN_TX_RX_func.c **** void CAN_TxCancel(uint8 bufferId) 
 182:Generated_Source\PSoC5/CAN_TX_RX_func.c **** {
 223              		.loc 1 182 0
 224              		.cfi_startproc
 225              		@ args = 0, pretend = 0, frame = 0
 226              		@ frame_needed = 0, uses_anonymous_args = 0
 227              		@ link register save eliminated.
 228              	.LVL26:
 183:Generated_Source\PSoC5/CAN_TX_RX_func.c ****     if (bufferId < CAN_NUMBER_OF_TX_MAILBOXES)
 229              		.loc 1 183 0
 230 0000 0728     		cmp	r0, #7
 231 0002 07D8     		bhi	.L24
 184:Generated_Source\PSoC5/CAN_TX_RX_func.c ****     {
 185:Generated_Source\PSoC5/CAN_TX_RX_func.c ****         CAN_TX_ABORT_MESSAGE(bufferId);
 232              		.loc 1 185 0
 233 0004 0001     		lsls	r0, r0, #4
 234              	.LVL27:
 235 0006 044A     		ldr	r2, .L26
 236 0008 835C     		ldrb	r3, [r0, r2]	@ zero_extendqisi2
 237 000a 03F0FC03 		and	r3, r3, #252
 238 000e 43F00203 		orr	r3, r3, #2
 239 0012 8354     		strb	r3, [r0, r2]
 240              	.L24:
 241 0014 7047     		bx	lr
 242              	.L27:
 243 0016 00BF     		.align	2
 244              	.L26:
 245 0018 20A00040 		.word	1073782816
 246              		.cfi_endproc
 247              	.LFE64:
 248              		.size	CAN_TxCancel, .-CAN_TxCancel
 249              		.section	.text.CAN_SendMsg0,"ax",%progbits
 250              		.align	2
 251              		.global	CAN_SendMsg0
 252              		.thumb
 253              		.thumb_func
 254              		.type	CAN_SendMsg0, %function
 255              	CAN_SendMsg0:
 256              	.LFB65:
 186:Generated_Source\PSoC5/CAN_TX_RX_func.c ****     }
 187:Generated_Source\PSoC5/CAN_TX_RX_func.c **** }
 188:Generated_Source\PSoC5/CAN_TX_RX_func.c **** 
 189:Generated_Source\PSoC5/CAN_TX_RX_func.c **** 
 190:Generated_Source\PSoC5/CAN_TX_RX_func.c **** #if (CAN_TX0_FUNC_ENABLE)
 191:Generated_Source\PSoC5/CAN_TX_RX_func.c ****     /*******************************************************************************
 192:Generated_Source\PSoC5/CAN_TX_RX_func.c ****     * FUNCTION NAME:   CAN_SendMsg0
 193:Generated_Source\PSoC5/CAN_TX_RX_func.c ****     ********************************************************************************
ARM GAS  C:\Users\diego\AppData\Local\Temp\cc5EpoZh.s 			page 9


 194:Generated_Source\PSoC5/CAN_TX_RX_func.c ****     *
 195:Generated_Source\PSoC5/CAN_TX_RX_func.c ****     * Summary:
 196:Generated_Source\PSoC5/CAN_TX_RX_func.c ****     *  This function is the entry point to Transmit Message 0. The function checks
 197:Generated_Source\PSoC5/CAN_TX_RX_func.c ****     *  if mailbox 0 doesn't already have un-transmitted messages waiting for
 198:Generated_Source\PSoC5/CAN_TX_RX_func.c ****     *  arbitration. If not initiate transmission of the message.
 199:Generated_Source\PSoC5/CAN_TX_RX_func.c ****     *  Generated only for the Transmit mailbox designed as Full.
 200:Generated_Source\PSoC5/CAN_TX_RX_func.c ****     *
 201:Generated_Source\PSoC5/CAN_TX_RX_func.c ****     * Parameters:
 202:Generated_Source\PSoC5/CAN_TX_RX_func.c ****     *  None.
 203:Generated_Source\PSoC5/CAN_TX_RX_func.c ****     *
 204:Generated_Source\PSoC5/CAN_TX_RX_func.c ****     * Return:
 205:Generated_Source\PSoC5/CAN_TX_RX_func.c ****     *  Indication if Message has been sent.
 206:Generated_Source\PSoC5/CAN_TX_RX_func.c ****     *   Define                             Description
 207:Generated_Source\PSoC5/CAN_TX_RX_func.c ****     *    CYRET_SUCCESS                      The function passed successfully
 208:Generated_Source\PSoC5/CAN_TX_RX_func.c ****     *    CAN_FAIL              The function failed
 209:Generated_Source\PSoC5/CAN_TX_RX_func.c ****     *
 210:Generated_Source\PSoC5/CAN_TX_RX_func.c ****     *******************************************************************************/
 211:Generated_Source\PSoC5/CAN_TX_RX_func.c ****     uint8 CAN_SendMsg0(void) 
 212:Generated_Source\PSoC5/CAN_TX_RX_func.c ****     {
 257              		.loc 1 212 0
 258              		.cfi_startproc
 259              		@ args = 0, pretend = 0, frame = 0
 260              		@ frame_needed = 0, uses_anonymous_args = 0
 261              		@ link register save eliminated.
 262              	.LVL28:
 213:Generated_Source\PSoC5/CAN_TX_RX_func.c ****         uint8 result = CYRET_SUCCESS;
 214:Generated_Source\PSoC5/CAN_TX_RX_func.c **** 
 215:Generated_Source\PSoC5/CAN_TX_RX_func.c ****         #if (CY_PSOC3 || CY_PSOC5)
 216:Generated_Source\PSoC5/CAN_TX_RX_func.c ****             if ((CAN_TX[0u].txcmd.byte[0u] & CAN_TX_REQUEST_PENDING) != 0u)
 263              		.loc 1 216 0
 264 0000 0F4B     		ldr	r3, .L31
 265 0002 1B78     		ldrb	r3, [r3]	@ zero_extendqisi2
 266 0004 13F0010F 		tst	r3, #1
 267 0008 17D1     		bne	.L30
 217:Generated_Source\PSoC5/CAN_TX_RX_func.c ****         #else  /* CY_PSOC4 */
 218:Generated_Source\PSoC5/CAN_TX_RX_func.c ****             if ((CAN_TX_CMD_REG(0u) & CAN_TX_REQUEST_PENDING) != 0u)
 219:Generated_Source\PSoC5/CAN_TX_RX_func.c ****         #endif /* CY_PSOC3 || CY_PSOC5 */
 220:Generated_Source\PSoC5/CAN_TX_RX_func.c ****             {
 221:Generated_Source\PSoC5/CAN_TX_RX_func.c ****                 result = CAN_FAIL;
 222:Generated_Source\PSoC5/CAN_TX_RX_func.c ****             }
 223:Generated_Source\PSoC5/CAN_TX_RX_func.c ****             else
 224:Generated_Source\PSoC5/CAN_TX_RX_func.c ****             {
 225:Generated_Source\PSoC5/CAN_TX_RX_func.c ****                 /* `#START MESSAGE_0_TRASMITTED` */
 226:Generated_Source\PSoC5/CAN_TX_RX_func.c ****                 CAN_TX_DATA_BYTE1(0) = goal_dist[0].bytes[0];
 268              		.loc 1 226 0
 269 000a 0E4A     		ldr	r2, .L31+4
 270 000c 1178     		ldrb	r1, [r2]	@ zero_extendqisi2
 271 000e 0C4B     		ldr	r3, .L31
 272 0010 D972     		strb	r1, [r3, #11]
 227:Generated_Source\PSoC5/CAN_TX_RX_func.c ****                 CAN_TX_DATA_BYTE2(0) = goal_dist[0].bytes[1];
 273              		.loc 1 227 0
 274 0012 5178     		ldrb	r1, [r2, #1]	@ zero_extendqisi2
 275 0014 9972     		strb	r1, [r3, #10]
 228:Generated_Source\PSoC5/CAN_TX_RX_func.c ****                 CAN_TX_DATA_BYTE3(0) = goal_dist[0].bytes[2];
 276              		.loc 1 228 0
 277 0016 9178     		ldrb	r1, [r2, #2]	@ zero_extendqisi2
 278 0018 5972     		strb	r1, [r3, #9]
ARM GAS  C:\Users\diego\AppData\Local\Temp\cc5EpoZh.s 			page 10


 229:Generated_Source\PSoC5/CAN_TX_RX_func.c ****                 CAN_TX_DATA_BYTE4(0) = goal_dist[0].bytes[3];
 279              		.loc 1 229 0
 280 001a D178     		ldrb	r1, [r2, #3]	@ zero_extendqisi2
 281 001c 1972     		strb	r1, [r3, #8]
 230:Generated_Source\PSoC5/CAN_TX_RX_func.c ****                 CAN_TX_DATA_BYTE5(0) = goal_dist[1].bytes[0];
 282              		.loc 1 230 0
 283 001e 1179     		ldrb	r1, [r2, #4]	@ zero_extendqisi2
 284 0020 D973     		strb	r1, [r3, #15]
 231:Generated_Source\PSoC5/CAN_TX_RX_func.c ****                 CAN_TX_DATA_BYTE6(0) = goal_dist[1].bytes[1];
 285              		.loc 1 231 0
 286 0022 5179     		ldrb	r1, [r2, #5]	@ zero_extendqisi2
 287 0024 9973     		strb	r1, [r3, #14]
 232:Generated_Source\PSoC5/CAN_TX_RX_func.c ****                 CAN_TX_DATA_BYTE7(0) = goal_dist[1].bytes[2];
 288              		.loc 1 232 0
 289 0026 9179     		ldrb	r1, [r2, #6]	@ zero_extendqisi2
 290 0028 5973     		strb	r1, [r3, #13]
 233:Generated_Source\PSoC5/CAN_TX_RX_func.c ****                 CAN_TX_DATA_BYTE8(0) = goal_dist[1].bytes[3];
 291              		.loc 1 233 0
 292 002a D279     		ldrb	r2, [r2, #7]	@ zero_extendqisi2
 293 002c 1A73     		strb	r2, [r3, #12]
 234:Generated_Source\PSoC5/CAN_TX_RX_func.c ****                 
 235:Generated_Source\PSoC5/CAN_TX_RX_func.c ****                 /*
 236:Generated_Source\PSoC5/CAN_TX_RX_func.c ****                 CAN_TX_DATA_BYTE1(0) = can_msg_tx[0];
 237:Generated_Source\PSoC5/CAN_TX_RX_func.c ****                 CAN_TX_DATA_BYTE2(0) = can_msg_tx[1];
 238:Generated_Source\PSoC5/CAN_TX_RX_func.c ****                 CAN_TX_DATA_BYTE3(0) = can_msg_tx[2];
 239:Generated_Source\PSoC5/CAN_TX_RX_func.c ****                 CAN_TX_DATA_BYTE4(0) = can_msg_tx[3];
 240:Generated_Source\PSoC5/CAN_TX_RX_func.c ****                 CAN_TX_DATA_BYTE5(0) = can_msg_tx[4];
 241:Generated_Source\PSoC5/CAN_TX_RX_func.c ****                 CAN_TX_DATA_BYTE6(0) = can_msg_tx[5];
 242:Generated_Source\PSoC5/CAN_TX_RX_func.c ****                 CAN_TX_DATA_BYTE7(0) = can_msg_tx[6];
 243:Generated_Source\PSoC5/CAN_TX_RX_func.c ****                 CAN_TX_DATA_BYTE8(0) = can_msg_tx[7];
 244:Generated_Source\PSoC5/CAN_TX_RX_func.c ****                 */
 245:Generated_Source\PSoC5/CAN_TX_RX_func.c ****                 /* `#END` */
 246:Generated_Source\PSoC5/CAN_TX_RX_func.c **** 
 247:Generated_Source\PSoC5/CAN_TX_RX_func.c ****                 #ifdef CAN_SEND_MSG_0_CALLBACK
 248:Generated_Source\PSoC5/CAN_TX_RX_func.c ****                     CAN_SendMsg_0_Callback();
 249:Generated_Source\PSoC5/CAN_TX_RX_func.c ****                 #endif /* CAN_SEND_MSG_0_CALLBACK */
 250:Generated_Source\PSoC5/CAN_TX_RX_func.c **** 
 251:Generated_Source\PSoC5/CAN_TX_RX_func.c ****                 CY_SET_REG32(CAN_TX_CMD_PTR(0u),
 294              		.loc 1 251 0
 295 002e 1A68     		ldr	r2, [r3]
 296 0030 42F00102 		orr	r2, r2, #1
 297 0034 1A60     		str	r2, [r3]
 213:Generated_Source\PSoC5/CAN_TX_RX_func.c **** 
 298              		.loc 1 213 0
 299 0036 0020     		movs	r0, #0
 300 0038 7047     		bx	lr
 301              	.L30:
 221:Generated_Source\PSoC5/CAN_TX_RX_func.c ****             }
 302              		.loc 1 221 0
 303 003a 0120     		movs	r0, #1
 304              	.LVL29:
 252:Generated_Source\PSoC5/CAN_TX_RX_func.c ****                 CY_GET_REG32(CAN_TX_CMD_PTR(0u)) | CAN_SEND_MESSAGE);
 253:Generated_Source\PSoC5/CAN_TX_RX_func.c ****             }
 254:Generated_Source\PSoC5/CAN_TX_RX_func.c **** 
 255:Generated_Source\PSoC5/CAN_TX_RX_func.c ****         return (result);
 256:Generated_Source\PSoC5/CAN_TX_RX_func.c ****     }
 305              		.loc 1 256 0
ARM GAS  C:\Users\diego\AppData\Local\Temp\cc5EpoZh.s 			page 11


 306 003c 7047     		bx	lr
 307              	.L32:
 308 003e 00BF     		.align	2
 309              	.L31:
 310 0040 20A00040 		.word	1073782816
 311 0044 00000000 		.word	goal_dist
 312              		.cfi_endproc
 313              	.LFE65:
 314              		.size	CAN_SendMsg0, .-CAN_SendMsg0
 315              		.section	.text.CAN_SendMsg1,"ax",%progbits
 316              		.align	2
 317              		.global	CAN_SendMsg1
 318              		.thumb
 319              		.thumb_func
 320              		.type	CAN_SendMsg1, %function
 321              	CAN_SendMsg1:
 322              	.LFB66:
 257:Generated_Source\PSoC5/CAN_TX_RX_func.c **** #endif /* CAN_TX0_FUNC_ENABLE */
 258:Generated_Source\PSoC5/CAN_TX_RX_func.c **** 
 259:Generated_Source\PSoC5/CAN_TX_RX_func.c **** 
 260:Generated_Source\PSoC5/CAN_TX_RX_func.c **** #if (CAN_TX1_FUNC_ENABLE)
 261:Generated_Source\PSoC5/CAN_TX_RX_func.c ****     /*******************************************************************************
 262:Generated_Source\PSoC5/CAN_TX_RX_func.c ****     * FUNCTION NAME:   CAN_SendMsg1
 263:Generated_Source\PSoC5/CAN_TX_RX_func.c ****     ********************************************************************************
 264:Generated_Source\PSoC5/CAN_TX_RX_func.c ****     *
 265:Generated_Source\PSoC5/CAN_TX_RX_func.c ****     * Summary:
 266:Generated_Source\PSoC5/CAN_TX_RX_func.c ****     *  This function is the entry point to Transmit Message 1. The function checks
 267:Generated_Source\PSoC5/CAN_TX_RX_func.c ****     *  if mailbox 1 doesn't already have un-transmitted messages waiting for
 268:Generated_Source\PSoC5/CAN_TX_RX_func.c ****     *  arbitration. If not initiate transmission of the message.
 269:Generated_Source\PSoC5/CAN_TX_RX_func.c ****     *  Generated only for the Transmit mailbox designed as Full.
 270:Generated_Source\PSoC5/CAN_TX_RX_func.c ****     *
 271:Generated_Source\PSoC5/CAN_TX_RX_func.c ****     * Parameters:
 272:Generated_Source\PSoC5/CAN_TX_RX_func.c ****     *  None.
 273:Generated_Source\PSoC5/CAN_TX_RX_func.c ****     *
 274:Generated_Source\PSoC5/CAN_TX_RX_func.c ****     * Return:
 275:Generated_Source\PSoC5/CAN_TX_RX_func.c ****     *  Indication if Message has been sent.
 276:Generated_Source\PSoC5/CAN_TX_RX_func.c ****     *   Define                             Description
 277:Generated_Source\PSoC5/CAN_TX_RX_func.c ****     *    CYRET_SUCCESS                      The function passed successfully
 278:Generated_Source\PSoC5/CAN_TX_RX_func.c ****     *    CAN_FAIL              The function failed
 279:Generated_Source\PSoC5/CAN_TX_RX_func.c ****     *
 280:Generated_Source\PSoC5/CAN_TX_RX_func.c ****     *******************************************************************************/
 281:Generated_Source\PSoC5/CAN_TX_RX_func.c ****     uint8 CAN_SendMsg1(void) 
 282:Generated_Source\PSoC5/CAN_TX_RX_func.c ****     {
 323              		.loc 1 282 0
 324              		.cfi_startproc
 325              		@ args = 0, pretend = 0, frame = 0
 326              		@ frame_needed = 0, uses_anonymous_args = 0
 327              		@ link register save eliminated.
 328              	.LVL30:
 283:Generated_Source\PSoC5/CAN_TX_RX_func.c ****         uint8 result = CYRET_SUCCESS;
 284:Generated_Source\PSoC5/CAN_TX_RX_func.c **** 
 285:Generated_Source\PSoC5/CAN_TX_RX_func.c ****         #if (CY_PSOC3 || CY_PSOC5)
 286:Generated_Source\PSoC5/CAN_TX_RX_func.c ****             if ((CAN_TX[1u].txcmd.byte[0u] & CAN_TX_REQUEST_PENDING) != 0u)
 329              		.loc 1 286 0
 330 0000 0F4B     		ldr	r3, .L36
 331 0002 1B78     		ldrb	r3, [r3]	@ zero_extendqisi2
 332 0004 13F0010F 		tst	r3, #1
ARM GAS  C:\Users\diego\AppData\Local\Temp\cc5EpoZh.s 			page 12


 333 0008 17D1     		bne	.L35
 287:Generated_Source\PSoC5/CAN_TX_RX_func.c ****         #else  /* CY_PSOC4 */
 288:Generated_Source\PSoC5/CAN_TX_RX_func.c ****             if ((CAN_TX_CMD_REG(1u) & CAN_TX_REQUEST_PENDING) != 0u)
 289:Generated_Source\PSoC5/CAN_TX_RX_func.c ****         #endif /* CY_PSOC3 || CY_PSOC5 */
 290:Generated_Source\PSoC5/CAN_TX_RX_func.c ****             {
 291:Generated_Source\PSoC5/CAN_TX_RX_func.c ****                 result = CAN_FAIL;
 292:Generated_Source\PSoC5/CAN_TX_RX_func.c ****             }
 293:Generated_Source\PSoC5/CAN_TX_RX_func.c ****             else
 294:Generated_Source\PSoC5/CAN_TX_RX_func.c ****             {
 295:Generated_Source\PSoC5/CAN_TX_RX_func.c ****                 /* `#START MESSAGE_1_TRASMITTED` */
 296:Generated_Source\PSoC5/CAN_TX_RX_func.c ****                 CAN_TX_DATA_BYTE1(1) = closest_obst[0].bytes[0];
 334              		.loc 1 296 0
 335 000a 0E4A     		ldr	r2, .L36+4
 336 000c 1178     		ldrb	r1, [r2]	@ zero_extendqisi2
 337 000e 0C4B     		ldr	r3, .L36
 338 0010 D972     		strb	r1, [r3, #11]
 297:Generated_Source\PSoC5/CAN_TX_RX_func.c ****                 CAN_TX_DATA_BYTE2(1) = closest_obst[0].bytes[1];
 339              		.loc 1 297 0
 340 0012 5178     		ldrb	r1, [r2, #1]	@ zero_extendqisi2
 341 0014 9972     		strb	r1, [r3, #10]
 298:Generated_Source\PSoC5/CAN_TX_RX_func.c ****                 CAN_TX_DATA_BYTE3(1) = closest_obst[0].bytes[2];
 342              		.loc 1 298 0
 343 0016 9178     		ldrb	r1, [r2, #2]	@ zero_extendqisi2
 344 0018 5972     		strb	r1, [r3, #9]
 299:Generated_Source\PSoC5/CAN_TX_RX_func.c ****                 CAN_TX_DATA_BYTE4(1) = closest_obst[0].bytes[3];
 345              		.loc 1 299 0
 346 001a D178     		ldrb	r1, [r2, #3]	@ zero_extendqisi2
 347 001c 1972     		strb	r1, [r3, #8]
 300:Generated_Source\PSoC5/CAN_TX_RX_func.c ****                 CAN_TX_DATA_BYTE5(1) = closest_obst[1].bytes[0];
 348              		.loc 1 300 0
 349 001e 1179     		ldrb	r1, [r2, #4]	@ zero_extendqisi2
 350 0020 D973     		strb	r1, [r3, #15]
 301:Generated_Source\PSoC5/CAN_TX_RX_func.c ****                 CAN_TX_DATA_BYTE6(1) = closest_obst[1].bytes[1];
 351              		.loc 1 301 0
 352 0022 5179     		ldrb	r1, [r2, #5]	@ zero_extendqisi2
 353 0024 9973     		strb	r1, [r3, #14]
 302:Generated_Source\PSoC5/CAN_TX_RX_func.c ****                 CAN_TX_DATA_BYTE7(1) = closest_obst[1].bytes[2];
 354              		.loc 1 302 0
 355 0026 9179     		ldrb	r1, [r2, #6]	@ zero_extendqisi2
 356 0028 5973     		strb	r1, [r3, #13]
 303:Generated_Source\PSoC5/CAN_TX_RX_func.c ****                 CAN_TX_DATA_BYTE8(1) = closest_obst[1].bytes[3];
 357              		.loc 1 303 0
 358 002a D279     		ldrb	r2, [r2, #7]	@ zero_extendqisi2
 359 002c 1A73     		strb	r2, [r3, #12]
 304:Generated_Source\PSoC5/CAN_TX_RX_func.c ****                 
 305:Generated_Source\PSoC5/CAN_TX_RX_func.c ****                 /*
 306:Generated_Source\PSoC5/CAN_TX_RX_func.c ****                 CAN_TX_DATA_BYTE1(1) = can_msg_tx[0];
 307:Generated_Source\PSoC5/CAN_TX_RX_func.c ****                 CAN_TX_DATA_BYTE2(1) = can_msg_tx[1];
 308:Generated_Source\PSoC5/CAN_TX_RX_func.c ****                 CAN_TX_DATA_BYTE3(1) = can_msg_tx[2];
 309:Generated_Source\PSoC5/CAN_TX_RX_func.c ****                 CAN_TX_DATA_BYTE4(1) = can_msg_tx[3];
 310:Generated_Source\PSoC5/CAN_TX_RX_func.c ****                 CAN_TX_DATA_BYTE5(1) = can_msg_tx[4];
 311:Generated_Source\PSoC5/CAN_TX_RX_func.c ****                 CAN_TX_DATA_BYTE6(1) = can_msg_tx[5];
 312:Generated_Source\PSoC5/CAN_TX_RX_func.c ****                 CAN_TX_DATA_BYTE7(1) = can_msg_tx[6];
 313:Generated_Source\PSoC5/CAN_TX_RX_func.c ****                 CAN_TX_DATA_BYTE8(1) = can_msg_tx[7];
 314:Generated_Source\PSoC5/CAN_TX_RX_func.c ****                 */
 315:Generated_Source\PSoC5/CAN_TX_RX_func.c ****                 /* `#END` */
 316:Generated_Source\PSoC5/CAN_TX_RX_func.c **** 
ARM GAS  C:\Users\diego\AppData\Local\Temp\cc5EpoZh.s 			page 13


 317:Generated_Source\PSoC5/CAN_TX_RX_func.c ****                 #ifdef CAN_SEND_MSG_1_CALLBACK
 318:Generated_Source\PSoC5/CAN_TX_RX_func.c ****                     CAN_SendMsg_1_Callback();
 319:Generated_Source\PSoC5/CAN_TX_RX_func.c ****                 #endif /* CAN_SEND_MSG_1_CALLBACK */
 320:Generated_Source\PSoC5/CAN_TX_RX_func.c **** 
 321:Generated_Source\PSoC5/CAN_TX_RX_func.c ****                 CY_SET_REG32(CAN_TX_CMD_PTR(1u),
 360              		.loc 1 321 0
 361 002e 1A68     		ldr	r2, [r3]
 362 0030 42F00102 		orr	r2, r2, #1
 363 0034 1A60     		str	r2, [r3]
 283:Generated_Source\PSoC5/CAN_TX_RX_func.c **** 
 364              		.loc 1 283 0
 365 0036 0020     		movs	r0, #0
 366 0038 7047     		bx	lr
 367              	.L35:
 291:Generated_Source\PSoC5/CAN_TX_RX_func.c ****             }
 368              		.loc 1 291 0
 369 003a 0120     		movs	r0, #1
 370              	.LVL31:
 322:Generated_Source\PSoC5/CAN_TX_RX_func.c ****                 CY_GET_REG32(CAN_TX_CMD_PTR(1u)) | CAN_SEND_MESSAGE);
 323:Generated_Source\PSoC5/CAN_TX_RX_func.c ****             }
 324:Generated_Source\PSoC5/CAN_TX_RX_func.c **** 
 325:Generated_Source\PSoC5/CAN_TX_RX_func.c ****         return (result);
 326:Generated_Source\PSoC5/CAN_TX_RX_func.c ****     }
 371              		.loc 1 326 0
 372 003c 7047     		bx	lr
 373              	.L37:
 374 003e 00BF     		.align	2
 375              	.L36:
 376 0040 30A00040 		.word	1073782832
 377 0044 00000000 		.word	closest_obst
 378              		.cfi_endproc
 379              	.LFE66:
 380              		.size	CAN_SendMsg1, .-CAN_SendMsg1
 381              		.section	.text.CAN_ReceiveMsg,"ax",%progbits
 382              		.align	2
 383              		.global	CAN_ReceiveMsg
 384              		.thumb
 385              		.thumb_func
 386              		.type	CAN_ReceiveMsg, %function
 387              	CAN_ReceiveMsg:
 388              	.LFB67:
 327:Generated_Source\PSoC5/CAN_TX_RX_func.c **** #endif /* CAN_TX1_FUNC_ENABLE */
 328:Generated_Source\PSoC5/CAN_TX_RX_func.c **** 
 329:Generated_Source\PSoC5/CAN_TX_RX_func.c **** 
 330:Generated_Source\PSoC5/CAN_TX_RX_func.c **** #if (CAN_TX2_FUNC_ENABLE)
 331:Generated_Source\PSoC5/CAN_TX_RX_func.c ****     /*******************************************************************************
 332:Generated_Source\PSoC5/CAN_TX_RX_func.c ****     * FUNCTION NAME:   CAN_SendMsg2
 333:Generated_Source\PSoC5/CAN_TX_RX_func.c ****     ********************************************************************************
 334:Generated_Source\PSoC5/CAN_TX_RX_func.c ****     *
 335:Generated_Source\PSoC5/CAN_TX_RX_func.c ****     * Summary:
 336:Generated_Source\PSoC5/CAN_TX_RX_func.c ****     *  This function is the entry point to Transmit Message 2. The function checks
 337:Generated_Source\PSoC5/CAN_TX_RX_func.c ****     *  if mailbox 2 doesn't already have un-transmitted messages waiting for
 338:Generated_Source\PSoC5/CAN_TX_RX_func.c ****     *  arbitration. If not initiate transmission of the message.
 339:Generated_Source\PSoC5/CAN_TX_RX_func.c ****     *  Generated only for the Transmit mailbox designed as Full.
 340:Generated_Source\PSoC5/CAN_TX_RX_func.c ****     *
 341:Generated_Source\PSoC5/CAN_TX_RX_func.c ****     * Parameters:
 342:Generated_Source\PSoC5/CAN_TX_RX_func.c ****     *  None.
ARM GAS  C:\Users\diego\AppData\Local\Temp\cc5EpoZh.s 			page 14


 343:Generated_Source\PSoC5/CAN_TX_RX_func.c ****     *
 344:Generated_Source\PSoC5/CAN_TX_RX_func.c ****     * Return:
 345:Generated_Source\PSoC5/CAN_TX_RX_func.c ****     *  Indication if Message has been sent.
 346:Generated_Source\PSoC5/CAN_TX_RX_func.c ****     *   Define                             Description
 347:Generated_Source\PSoC5/CAN_TX_RX_func.c ****     *    CYRET_SUCCESS                      The function passed successfully
 348:Generated_Source\PSoC5/CAN_TX_RX_func.c ****     *    CAN_FAIL              The function failed
 349:Generated_Source\PSoC5/CAN_TX_RX_func.c ****     *
 350:Generated_Source\PSoC5/CAN_TX_RX_func.c ****     *******************************************************************************/
 351:Generated_Source\PSoC5/CAN_TX_RX_func.c ****     uint8 CAN_SendMsg2(void) 
 352:Generated_Source\PSoC5/CAN_TX_RX_func.c ****     {
 353:Generated_Source\PSoC5/CAN_TX_RX_func.c ****         uint8 result = CYRET_SUCCESS;
 354:Generated_Source\PSoC5/CAN_TX_RX_func.c **** 
 355:Generated_Source\PSoC5/CAN_TX_RX_func.c ****         #if (CY_PSOC3 || CY_PSOC5)
 356:Generated_Source\PSoC5/CAN_TX_RX_func.c ****             if ((CAN_TX[2u].txcmd.byte[0u] & CAN_TX_REQUEST_PENDING) != 0u)
 357:Generated_Source\PSoC5/CAN_TX_RX_func.c ****         #else  /* CY_PSOC4 */
 358:Generated_Source\PSoC5/CAN_TX_RX_func.c ****             if ((CAN_TX_CMD_REG(2u) & CAN_TX_REQUEST_PENDING) != 0u)
 359:Generated_Source\PSoC5/CAN_TX_RX_func.c ****         #endif /* CY_PSOC3 || CY_PSOC5 */
 360:Generated_Source\PSoC5/CAN_TX_RX_func.c ****             {
 361:Generated_Source\PSoC5/CAN_TX_RX_func.c ****                 result = CAN_FAIL;
 362:Generated_Source\PSoC5/CAN_TX_RX_func.c ****             }
 363:Generated_Source\PSoC5/CAN_TX_RX_func.c ****             else
 364:Generated_Source\PSoC5/CAN_TX_RX_func.c ****             {
 365:Generated_Source\PSoC5/CAN_TX_RX_func.c ****                 /* `#START MESSAGE_2_TRASMITTED` */
 366:Generated_Source\PSoC5/CAN_TX_RX_func.c **** 
 367:Generated_Source\PSoC5/CAN_TX_RX_func.c ****                 /* `#END` */
 368:Generated_Source\PSoC5/CAN_TX_RX_func.c **** 
 369:Generated_Source\PSoC5/CAN_TX_RX_func.c ****                 #ifdef CAN_SEND_MSG_2_CALLBACK
 370:Generated_Source\PSoC5/CAN_TX_RX_func.c ****                     CAN_SendMsg_2_Callback();
 371:Generated_Source\PSoC5/CAN_TX_RX_func.c ****                 #endif /* CAN_SEND_MSG_2_CALLBACK */
 372:Generated_Source\PSoC5/CAN_TX_RX_func.c **** 
 373:Generated_Source\PSoC5/CAN_TX_RX_func.c ****                 CY_SET_REG32(CAN_TX_CMD_PTR(2u),
 374:Generated_Source\PSoC5/CAN_TX_RX_func.c ****                 CY_GET_REG32(CAN_TX_CMD_PTR(2u)) | CAN_SEND_MESSAGE);
 375:Generated_Source\PSoC5/CAN_TX_RX_func.c ****             }
 376:Generated_Source\PSoC5/CAN_TX_RX_func.c **** 
 377:Generated_Source\PSoC5/CAN_TX_RX_func.c ****         return (result);
 378:Generated_Source\PSoC5/CAN_TX_RX_func.c ****     }
 379:Generated_Source\PSoC5/CAN_TX_RX_func.c **** #endif /* CAN_TX2_FUNC_ENABLE */
 380:Generated_Source\PSoC5/CAN_TX_RX_func.c **** 
 381:Generated_Source\PSoC5/CAN_TX_RX_func.c **** 
 382:Generated_Source\PSoC5/CAN_TX_RX_func.c **** #if (CAN_TX3_FUNC_ENABLE)
 383:Generated_Source\PSoC5/CAN_TX_RX_func.c ****     /*******************************************************************************
 384:Generated_Source\PSoC5/CAN_TX_RX_func.c ****     * FUNCTION NAME:   CAN_SendMsg3
 385:Generated_Source\PSoC5/CAN_TX_RX_func.c ****     ********************************************************************************
 386:Generated_Source\PSoC5/CAN_TX_RX_func.c ****     *
 387:Generated_Source\PSoC5/CAN_TX_RX_func.c ****     * Summary:
 388:Generated_Source\PSoC5/CAN_TX_RX_func.c ****     *  This function is the entry point to Transmit Message 3. The function checks
 389:Generated_Source\PSoC5/CAN_TX_RX_func.c ****     *  if mailbox 3 doesn't already have un-transmitted messages waiting for
 390:Generated_Source\PSoC5/CAN_TX_RX_func.c ****     *  arbitration. If not initiate transmission of the message.
 391:Generated_Source\PSoC5/CAN_TX_RX_func.c ****     *  Generated only for the Transmit mailbox designed as Full.
 392:Generated_Source\PSoC5/CAN_TX_RX_func.c ****     *
 393:Generated_Source\PSoC5/CAN_TX_RX_func.c ****     * Parameters:
 394:Generated_Source\PSoC5/CAN_TX_RX_func.c ****     *  None.
 395:Generated_Source\PSoC5/CAN_TX_RX_func.c ****     *
 396:Generated_Source\PSoC5/CAN_TX_RX_func.c ****     * Return:
 397:Generated_Source\PSoC5/CAN_TX_RX_func.c ****     *  Indication if Message has been sent.
 398:Generated_Source\PSoC5/CAN_TX_RX_func.c ****     *   Define                             Description
 399:Generated_Source\PSoC5/CAN_TX_RX_func.c ****     *    CYRET_SUCCESS                      The function passed successfully
ARM GAS  C:\Users\diego\AppData\Local\Temp\cc5EpoZh.s 			page 15


 400:Generated_Source\PSoC5/CAN_TX_RX_func.c ****     *    CAN_FAIL              The function failed
 401:Generated_Source\PSoC5/CAN_TX_RX_func.c ****     *
 402:Generated_Source\PSoC5/CAN_TX_RX_func.c ****     *******************************************************************************/
 403:Generated_Source\PSoC5/CAN_TX_RX_func.c ****     uint8 CAN_SendMsg3(void) 
 404:Generated_Source\PSoC5/CAN_TX_RX_func.c ****     {
 405:Generated_Source\PSoC5/CAN_TX_RX_func.c ****         uint8 result = CYRET_SUCCESS;
 406:Generated_Source\PSoC5/CAN_TX_RX_func.c **** 
 407:Generated_Source\PSoC5/CAN_TX_RX_func.c ****         #if (CY_PSOC3 || CY_PSOC5)
 408:Generated_Source\PSoC5/CAN_TX_RX_func.c ****             if ((CAN_TX[3u].txcmd.byte[0u] & CAN_TX_REQUEST_PENDING) != 0u)
 409:Generated_Source\PSoC5/CAN_TX_RX_func.c ****         #else  /* CY_PSOC4 */
 410:Generated_Source\PSoC5/CAN_TX_RX_func.c ****             if ((CAN_TX_CMD_REG(3u) & CAN_TX_REQUEST_PENDING) != 0u)
 411:Generated_Source\PSoC5/CAN_TX_RX_func.c ****         #endif /* CY_PSOC3 || CY_PSOC5 */
 412:Generated_Source\PSoC5/CAN_TX_RX_func.c ****             {
 413:Generated_Source\PSoC5/CAN_TX_RX_func.c ****                 result = CAN_FAIL;
 414:Generated_Source\PSoC5/CAN_TX_RX_func.c ****             }
 415:Generated_Source\PSoC5/CAN_TX_RX_func.c ****             else
 416:Generated_Source\PSoC5/CAN_TX_RX_func.c ****             {
 417:Generated_Source\PSoC5/CAN_TX_RX_func.c ****                 /* `#START MESSAGE_3_TRASMITTED` */
 418:Generated_Source\PSoC5/CAN_TX_RX_func.c **** 
 419:Generated_Source\PSoC5/CAN_TX_RX_func.c ****                 /* `#END` */
 420:Generated_Source\PSoC5/CAN_TX_RX_func.c **** 
 421:Generated_Source\PSoC5/CAN_TX_RX_func.c ****                 #ifdef CAN_SEND_MSG_3_CALLBACK
 422:Generated_Source\PSoC5/CAN_TX_RX_func.c ****                     CAN_SendMsg_3_Callback();
 423:Generated_Source\PSoC5/CAN_TX_RX_func.c ****                 #endif /* CAN_SEND_MSG_3_CALLBACK */
 424:Generated_Source\PSoC5/CAN_TX_RX_func.c **** 
 425:Generated_Source\PSoC5/CAN_TX_RX_func.c ****                 CY_SET_REG32(CAN_TX_CMD_PTR(3u),
 426:Generated_Source\PSoC5/CAN_TX_RX_func.c ****                 CY_GET_REG32(CAN_TX_CMD_PTR(3u)) | CAN_SEND_MESSAGE);
 427:Generated_Source\PSoC5/CAN_TX_RX_func.c ****             }
 428:Generated_Source\PSoC5/CAN_TX_RX_func.c **** 
 429:Generated_Source\PSoC5/CAN_TX_RX_func.c ****         return (result);
 430:Generated_Source\PSoC5/CAN_TX_RX_func.c ****     }
 431:Generated_Source\PSoC5/CAN_TX_RX_func.c **** #endif /* CAN_TX3_FUNC_ENABLE */
 432:Generated_Source\PSoC5/CAN_TX_RX_func.c **** 
 433:Generated_Source\PSoC5/CAN_TX_RX_func.c **** 
 434:Generated_Source\PSoC5/CAN_TX_RX_func.c **** #if (CAN_TX4_FUNC_ENABLE)
 435:Generated_Source\PSoC5/CAN_TX_RX_func.c ****     /*******************************************************************************
 436:Generated_Source\PSoC5/CAN_TX_RX_func.c ****     * FUNCTION NAME:   CAN_SendMsg4
 437:Generated_Source\PSoC5/CAN_TX_RX_func.c ****     ********************************************************************************
 438:Generated_Source\PSoC5/CAN_TX_RX_func.c ****     *
 439:Generated_Source\PSoC5/CAN_TX_RX_func.c ****     * Summary:
 440:Generated_Source\PSoC5/CAN_TX_RX_func.c ****     *  This function is the entry point to Transmit Message 4. The function checks
 441:Generated_Source\PSoC5/CAN_TX_RX_func.c ****     *  if mailbox 4 doesn't already have un-transmitted messages waiting for
 442:Generated_Source\PSoC5/CAN_TX_RX_func.c ****     *  arbitration. If not initiate transmission of the message.
 443:Generated_Source\PSoC5/CAN_TX_RX_func.c ****     *  Generated only for the Transmit mailbox designed as Full.
 444:Generated_Source\PSoC5/CAN_TX_RX_func.c ****     *
 445:Generated_Source\PSoC5/CAN_TX_RX_func.c ****     * Parameters:
 446:Generated_Source\PSoC5/CAN_TX_RX_func.c ****     *  None.
 447:Generated_Source\PSoC5/CAN_TX_RX_func.c ****     *
 448:Generated_Source\PSoC5/CAN_TX_RX_func.c ****     * Return:
 449:Generated_Source\PSoC5/CAN_TX_RX_func.c ****     *  Indication if Message has been sent.
 450:Generated_Source\PSoC5/CAN_TX_RX_func.c ****     *   Define                             Description
 451:Generated_Source\PSoC5/CAN_TX_RX_func.c ****     *    CYRET_SUCCESS                      The function passed successfully
 452:Generated_Source\PSoC5/CAN_TX_RX_func.c ****     *    CAN_FAIL              The function failed
 453:Generated_Source\PSoC5/CAN_TX_RX_func.c ****     *
 454:Generated_Source\PSoC5/CAN_TX_RX_func.c ****     *******************************************************************************/
 455:Generated_Source\PSoC5/CAN_TX_RX_func.c ****     uint8 CAN_SendMsg4(void) 
 456:Generated_Source\PSoC5/CAN_TX_RX_func.c ****     {
ARM GAS  C:\Users\diego\AppData\Local\Temp\cc5EpoZh.s 			page 16


 457:Generated_Source\PSoC5/CAN_TX_RX_func.c ****         uint8 result = CYRET_SUCCESS;
 458:Generated_Source\PSoC5/CAN_TX_RX_func.c **** 
 459:Generated_Source\PSoC5/CAN_TX_RX_func.c ****         #if (CY_PSOC3 || CY_PSOC5)
 460:Generated_Source\PSoC5/CAN_TX_RX_func.c ****             if ((CAN_TX[4u].txcmd.byte[0u] & CAN_TX_REQUEST_PENDING) != 0u)
 461:Generated_Source\PSoC5/CAN_TX_RX_func.c ****         #else  /* CY_PSOC4 */
 462:Generated_Source\PSoC5/CAN_TX_RX_func.c ****             if ((CAN_TX_CMD_REG(4u) & CAN_TX_REQUEST_PENDING) != 0u)
 463:Generated_Source\PSoC5/CAN_TX_RX_func.c ****         #endif /* CY_PSOC3 || CY_PSOC5 */
 464:Generated_Source\PSoC5/CAN_TX_RX_func.c ****             {
 465:Generated_Source\PSoC5/CAN_TX_RX_func.c ****                 result = CAN_FAIL;
 466:Generated_Source\PSoC5/CAN_TX_RX_func.c ****             }
 467:Generated_Source\PSoC5/CAN_TX_RX_func.c ****             else
 468:Generated_Source\PSoC5/CAN_TX_RX_func.c ****             {
 469:Generated_Source\PSoC5/CAN_TX_RX_func.c ****                 /* `#START MESSAGE_4_TRASMITTED` */
 470:Generated_Source\PSoC5/CAN_TX_RX_func.c **** 
 471:Generated_Source\PSoC5/CAN_TX_RX_func.c ****                 /* `#END` */
 472:Generated_Source\PSoC5/CAN_TX_RX_func.c **** 
 473:Generated_Source\PSoC5/CAN_TX_RX_func.c ****                 #ifdef CAN_SEND_MSG_4_CALLBACK
 474:Generated_Source\PSoC5/CAN_TX_RX_func.c ****                     CAN_SendMsg_4_Callback();
 475:Generated_Source\PSoC5/CAN_TX_RX_func.c ****                 #endif /* CAN_SEND_MSG_4_CALLBACK */
 476:Generated_Source\PSoC5/CAN_TX_RX_func.c **** 
 477:Generated_Source\PSoC5/CAN_TX_RX_func.c ****                 CY_SET_REG32(CAN_TX_CMD_PTR(4u),
 478:Generated_Source\PSoC5/CAN_TX_RX_func.c ****                 CY_GET_REG32(CAN_TX_CMD_PTR(4u)) | CAN_SEND_MESSAGE);
 479:Generated_Source\PSoC5/CAN_TX_RX_func.c ****             }
 480:Generated_Source\PSoC5/CAN_TX_RX_func.c **** 
 481:Generated_Source\PSoC5/CAN_TX_RX_func.c ****         return (result);
 482:Generated_Source\PSoC5/CAN_TX_RX_func.c ****     }
 483:Generated_Source\PSoC5/CAN_TX_RX_func.c **** #endif /* CAN_TX4_FUNC_ENABLE */
 484:Generated_Source\PSoC5/CAN_TX_RX_func.c **** 
 485:Generated_Source\PSoC5/CAN_TX_RX_func.c **** 
 486:Generated_Source\PSoC5/CAN_TX_RX_func.c **** #if (CAN_TX5_FUNC_ENABLE)
 487:Generated_Source\PSoC5/CAN_TX_RX_func.c ****     /*******************************************************************************
 488:Generated_Source\PSoC5/CAN_TX_RX_func.c ****     * FUNCTION NAME:   CAN_SendMsg5
 489:Generated_Source\PSoC5/CAN_TX_RX_func.c ****     ********************************************************************************
 490:Generated_Source\PSoC5/CAN_TX_RX_func.c ****     *
 491:Generated_Source\PSoC5/CAN_TX_RX_func.c ****     * Summary:
 492:Generated_Source\PSoC5/CAN_TX_RX_func.c ****     *  This function is the entry point to Transmit Message 5. The function checks
 493:Generated_Source\PSoC5/CAN_TX_RX_func.c ****     *  if mailbox 5 doesn't already have un-transmitted messages waiting for
 494:Generated_Source\PSoC5/CAN_TX_RX_func.c ****     *  arbitration. If not initiate transmission of the message.
 495:Generated_Source\PSoC5/CAN_TX_RX_func.c ****     *  Generated only for the Transmit mailbox designed as Full.
 496:Generated_Source\PSoC5/CAN_TX_RX_func.c ****     *
 497:Generated_Source\PSoC5/CAN_TX_RX_func.c ****     * Parameters:
 498:Generated_Source\PSoC5/CAN_TX_RX_func.c ****     *  None.
 499:Generated_Source\PSoC5/CAN_TX_RX_func.c ****     *
 500:Generated_Source\PSoC5/CAN_TX_RX_func.c ****     * Return:
 501:Generated_Source\PSoC5/CAN_TX_RX_func.c ****     *  Indication if Message has been sent.
 502:Generated_Source\PSoC5/CAN_TX_RX_func.c ****     *   Define                             Description
 503:Generated_Source\PSoC5/CAN_TX_RX_func.c ****     *    CYRET_SUCCESS                      The function passed successfully
 504:Generated_Source\PSoC5/CAN_TX_RX_func.c ****     *    CAN_FAIL              The function failed
 505:Generated_Source\PSoC5/CAN_TX_RX_func.c ****     *
 506:Generated_Source\PSoC5/CAN_TX_RX_func.c ****     *******************************************************************************/
 507:Generated_Source\PSoC5/CAN_TX_RX_func.c ****     uint8 CAN_SendMsg5(void) 
 508:Generated_Source\PSoC5/CAN_TX_RX_func.c ****     {
 509:Generated_Source\PSoC5/CAN_TX_RX_func.c ****         uint8 result = CYRET_SUCCESS;
 510:Generated_Source\PSoC5/CAN_TX_RX_func.c **** 
 511:Generated_Source\PSoC5/CAN_TX_RX_func.c ****         #if (CY_PSOC3 || CY_PSOC5)
 512:Generated_Source\PSoC5/CAN_TX_RX_func.c ****             if ((CAN_TX[5u].txcmd.byte[0u] & CAN_TX_REQUEST_PENDING) != 0u)
 513:Generated_Source\PSoC5/CAN_TX_RX_func.c ****         #else  /* CY_PSOC4 */
ARM GAS  C:\Users\diego\AppData\Local\Temp\cc5EpoZh.s 			page 17


 514:Generated_Source\PSoC5/CAN_TX_RX_func.c ****             if ((CAN_TX_CMD_REG(5u) & CAN_TX_REQUEST_PENDING) != 0u)
 515:Generated_Source\PSoC5/CAN_TX_RX_func.c ****         #endif /* CY_PSOC3 || CY_PSOC5 */
 516:Generated_Source\PSoC5/CAN_TX_RX_func.c ****             {
 517:Generated_Source\PSoC5/CAN_TX_RX_func.c ****                 result = CAN_FAIL;
 518:Generated_Source\PSoC5/CAN_TX_RX_func.c ****             }
 519:Generated_Source\PSoC5/CAN_TX_RX_func.c ****             else
 520:Generated_Source\PSoC5/CAN_TX_RX_func.c ****             {
 521:Generated_Source\PSoC5/CAN_TX_RX_func.c ****                 /* `#START MESSAGE_5_TRASMITTED` */
 522:Generated_Source\PSoC5/CAN_TX_RX_func.c **** 
 523:Generated_Source\PSoC5/CAN_TX_RX_func.c ****                 /* `#END` */
 524:Generated_Source\PSoC5/CAN_TX_RX_func.c **** 
 525:Generated_Source\PSoC5/CAN_TX_RX_func.c ****                 #ifdef CAN_SEND_MSG_5_CALLBACK
 526:Generated_Source\PSoC5/CAN_TX_RX_func.c ****                     CAN_SendMsg_5_Callback();
 527:Generated_Source\PSoC5/CAN_TX_RX_func.c ****                 #endif /* CAN_SEND_MSG_5_CALLBACK */
 528:Generated_Source\PSoC5/CAN_TX_RX_func.c **** 
 529:Generated_Source\PSoC5/CAN_TX_RX_func.c ****                 CY_SET_REG32(CAN_TX_CMD_PTR(5u),
 530:Generated_Source\PSoC5/CAN_TX_RX_func.c ****                 CY_GET_REG32(CAN_TX_CMD_PTR(5u)) | CAN_SEND_MESSAGE);
 531:Generated_Source\PSoC5/CAN_TX_RX_func.c ****             }
 532:Generated_Source\PSoC5/CAN_TX_RX_func.c **** 
 533:Generated_Source\PSoC5/CAN_TX_RX_func.c ****         return (result);
 534:Generated_Source\PSoC5/CAN_TX_RX_func.c ****     }
 535:Generated_Source\PSoC5/CAN_TX_RX_func.c **** #endif /* CAN_TX5_FUNC_ENABLE */
 536:Generated_Source\PSoC5/CAN_TX_RX_func.c **** 
 537:Generated_Source\PSoC5/CAN_TX_RX_func.c **** 
 538:Generated_Source\PSoC5/CAN_TX_RX_func.c **** #if (CAN_TX6_FUNC_ENABLE)
 539:Generated_Source\PSoC5/CAN_TX_RX_func.c ****     /*******************************************************************************
 540:Generated_Source\PSoC5/CAN_TX_RX_func.c ****     * FUNCTION NAME:   CAN_SendMsg6
 541:Generated_Source\PSoC5/CAN_TX_RX_func.c ****     ********************************************************************************
 542:Generated_Source\PSoC5/CAN_TX_RX_func.c ****     *
 543:Generated_Source\PSoC5/CAN_TX_RX_func.c ****     * Summary:
 544:Generated_Source\PSoC5/CAN_TX_RX_func.c ****     *  This function is the entry point to Transmit Message 6. The function checks
 545:Generated_Source\PSoC5/CAN_TX_RX_func.c ****     *  if mailbox 6 doesn't already have un-transmitted messages waiting for
 546:Generated_Source\PSoC5/CAN_TX_RX_func.c ****     *  arbitration. If not initiate transmission of the message.
 547:Generated_Source\PSoC5/CAN_TX_RX_func.c ****     *  Generated only for the Transmit mailbox designed as Full.
 548:Generated_Source\PSoC5/CAN_TX_RX_func.c ****     *
 549:Generated_Source\PSoC5/CAN_TX_RX_func.c ****     * Parameters:
 550:Generated_Source\PSoC5/CAN_TX_RX_func.c ****     *  None.
 551:Generated_Source\PSoC5/CAN_TX_RX_func.c ****     *
 552:Generated_Source\PSoC5/CAN_TX_RX_func.c ****     * Return:
 553:Generated_Source\PSoC5/CAN_TX_RX_func.c ****     *  Indication if Message has been sent.
 554:Generated_Source\PSoC5/CAN_TX_RX_func.c ****     *   Define                             Description
 555:Generated_Source\PSoC5/CAN_TX_RX_func.c ****     *    CYRET_SUCCESS                      The function passed successfully
 556:Generated_Source\PSoC5/CAN_TX_RX_func.c ****     *    CAN_FAIL              The function failed
 557:Generated_Source\PSoC5/CAN_TX_RX_func.c ****     *
 558:Generated_Source\PSoC5/CAN_TX_RX_func.c ****     *******************************************************************************/
 559:Generated_Source\PSoC5/CAN_TX_RX_func.c ****     uint8 CAN_SendMsg6(void) 
 560:Generated_Source\PSoC5/CAN_TX_RX_func.c ****     {
 561:Generated_Source\PSoC5/CAN_TX_RX_func.c ****         uint8 result = CYRET_SUCCESS;
 562:Generated_Source\PSoC5/CAN_TX_RX_func.c **** 
 563:Generated_Source\PSoC5/CAN_TX_RX_func.c ****         #if (CY_PSOC3 || CY_PSOC5)
 564:Generated_Source\PSoC5/CAN_TX_RX_func.c ****             if ((CAN_TX[6u].txcmd.byte[0u] & CAN_TX_REQUEST_PENDING) != 0u)
 565:Generated_Source\PSoC5/CAN_TX_RX_func.c ****         #else  /* CY_PSOC4 */
 566:Generated_Source\PSoC5/CAN_TX_RX_func.c ****             if ((CAN_TX_CMD_REG(6u) & CAN_TX_REQUEST_PENDING) != 0u)
 567:Generated_Source\PSoC5/CAN_TX_RX_func.c ****         #endif /* CY_PSOC3 || CY_PSOC5 */
 568:Generated_Source\PSoC5/CAN_TX_RX_func.c ****             {
 569:Generated_Source\PSoC5/CAN_TX_RX_func.c ****                 result = CAN_FAIL;
 570:Generated_Source\PSoC5/CAN_TX_RX_func.c ****             }
ARM GAS  C:\Users\diego\AppData\Local\Temp\cc5EpoZh.s 			page 18


 571:Generated_Source\PSoC5/CAN_TX_RX_func.c ****             else
 572:Generated_Source\PSoC5/CAN_TX_RX_func.c ****             {
 573:Generated_Source\PSoC5/CAN_TX_RX_func.c ****                 /* `#START MESSAGE_6_TRASMITTED` */
 574:Generated_Source\PSoC5/CAN_TX_RX_func.c **** 
 575:Generated_Source\PSoC5/CAN_TX_RX_func.c ****                 /* `#END` */
 576:Generated_Source\PSoC5/CAN_TX_RX_func.c **** 
 577:Generated_Source\PSoC5/CAN_TX_RX_func.c ****                 #ifdef CAN_SEND_MSG_6_CALLBACK
 578:Generated_Source\PSoC5/CAN_TX_RX_func.c ****                     CAN_SendMsg_6_Callback();
 579:Generated_Source\PSoC5/CAN_TX_RX_func.c ****                 #endif /* CAN_SEND_MSG_6_CALLBACK */
 580:Generated_Source\PSoC5/CAN_TX_RX_func.c **** 
 581:Generated_Source\PSoC5/CAN_TX_RX_func.c ****                 CY_SET_REG32(CAN_TX_CMD_PTR(6u),
 582:Generated_Source\PSoC5/CAN_TX_RX_func.c ****                 CY_GET_REG32(CAN_TX_CMD_PTR(6u)) | CAN_SEND_MESSAGE);
 583:Generated_Source\PSoC5/CAN_TX_RX_func.c ****             }
 584:Generated_Source\PSoC5/CAN_TX_RX_func.c **** 
 585:Generated_Source\PSoC5/CAN_TX_RX_func.c ****         return (result);
 586:Generated_Source\PSoC5/CAN_TX_RX_func.c ****     }
 587:Generated_Source\PSoC5/CAN_TX_RX_func.c **** #endif /* CAN_TX6_FUNC_ENABLE */
 588:Generated_Source\PSoC5/CAN_TX_RX_func.c **** 
 589:Generated_Source\PSoC5/CAN_TX_RX_func.c **** 
 590:Generated_Source\PSoC5/CAN_TX_RX_func.c **** #if (CAN_TX7_FUNC_ENABLE)
 591:Generated_Source\PSoC5/CAN_TX_RX_func.c ****     /*******************************************************************************
 592:Generated_Source\PSoC5/CAN_TX_RX_func.c ****     * FUNCTION NAME:   CAN_SendMsg7)
 593:Generated_Source\PSoC5/CAN_TX_RX_func.c ****     ********************************************************************************
 594:Generated_Source\PSoC5/CAN_TX_RX_func.c ****     *
 595:Generated_Source\PSoC5/CAN_TX_RX_func.c ****     * Summary:
 596:Generated_Source\PSoC5/CAN_TX_RX_func.c ****     *  This function is the entry point to Transmit Message 7. The function checks
 597:Generated_Source\PSoC5/CAN_TX_RX_func.c ****     *  if mailbox 7 doesn't already have un-transmitted messages waiting for
 598:Generated_Source\PSoC5/CAN_TX_RX_func.c ****     *  arbitration. If not initiate transmission of the message.
 599:Generated_Source\PSoC5/CAN_TX_RX_func.c ****     *  Generated only for the Transmit mailbox designed as Full.
 600:Generated_Source\PSoC5/CAN_TX_RX_func.c ****     *
 601:Generated_Source\PSoC5/CAN_TX_RX_func.c ****     * Parameters:
 602:Generated_Source\PSoC5/CAN_TX_RX_func.c ****     *  None.
 603:Generated_Source\PSoC5/CAN_TX_RX_func.c ****     *
 604:Generated_Source\PSoC5/CAN_TX_RX_func.c ****     * Return:
 605:Generated_Source\PSoC5/CAN_TX_RX_func.c ****     *  Indication if Message has been sent.
 606:Generated_Source\PSoC5/CAN_TX_RX_func.c ****     *   Define                             Description
 607:Generated_Source\PSoC5/CAN_TX_RX_func.c ****     *    CYRET_SUCCESS                      The function passed successfully
 608:Generated_Source\PSoC5/CAN_TX_RX_func.c ****     *    CAN_FAIL              The function failed
 609:Generated_Source\PSoC5/CAN_TX_RX_func.c ****     *
 610:Generated_Source\PSoC5/CAN_TX_RX_func.c ****     *******************************************************************************/
 611:Generated_Source\PSoC5/CAN_TX_RX_func.c ****     uint8 CAN_SendMsg7(void) 
 612:Generated_Source\PSoC5/CAN_TX_RX_func.c ****     {
 613:Generated_Source\PSoC5/CAN_TX_RX_func.c ****         uint8 result = CYRET_SUCCESS;
 614:Generated_Source\PSoC5/CAN_TX_RX_func.c **** 
 615:Generated_Source\PSoC5/CAN_TX_RX_func.c ****         #if (CY_PSOC3 || CY_PSOC5)
 616:Generated_Source\PSoC5/CAN_TX_RX_func.c ****             if ((CAN_TX[7u].txcmd.byte[0u] & CAN_TX_REQUEST_PENDING) != 0u)
 617:Generated_Source\PSoC5/CAN_TX_RX_func.c ****         #else  /* CY_PSOC4 */
 618:Generated_Source\PSoC5/CAN_TX_RX_func.c ****             if ((CAN_TX_CMD_REG(7u) & CAN_TX_REQUEST_PENDING) != 0u)
 619:Generated_Source\PSoC5/CAN_TX_RX_func.c ****         #endif /* CY_PSOC3 || CY_PSOC5 */
 620:Generated_Source\PSoC5/CAN_TX_RX_func.c ****             {
 621:Generated_Source\PSoC5/CAN_TX_RX_func.c ****                 result = CAN_FAIL;
 622:Generated_Source\PSoC5/CAN_TX_RX_func.c ****             }
 623:Generated_Source\PSoC5/CAN_TX_RX_func.c ****             else
 624:Generated_Source\PSoC5/CAN_TX_RX_func.c ****             {
 625:Generated_Source\PSoC5/CAN_TX_RX_func.c ****                 /* `#START MESSAGE_7_TRASMITTED` */
 626:Generated_Source\PSoC5/CAN_TX_RX_func.c **** 
 627:Generated_Source\PSoC5/CAN_TX_RX_func.c ****                 /* `#END` */
ARM GAS  C:\Users\diego\AppData\Local\Temp\cc5EpoZh.s 			page 19


 628:Generated_Source\PSoC5/CAN_TX_RX_func.c **** 
 629:Generated_Source\PSoC5/CAN_TX_RX_func.c ****                 #ifdef CAN_SEND_MSG_7_CALLBACK
 630:Generated_Source\PSoC5/CAN_TX_RX_func.c ****                     CAN_SendMsg_7_Callback();
 631:Generated_Source\PSoC5/CAN_TX_RX_func.c ****                 #endif /* CAN_SEND_MSG_7_CALLBACK */
 632:Generated_Source\PSoC5/CAN_TX_RX_func.c **** 
 633:Generated_Source\PSoC5/CAN_TX_RX_func.c ****                 CY_SET_REG32(CAN_TX_CMD_PTR(7u),
 634:Generated_Source\PSoC5/CAN_TX_RX_func.c ****                 CY_GET_REG32(CAN_TX_CMD_PTR(7u)) | CAN_SEND_MESSAGE);
 635:Generated_Source\PSoC5/CAN_TX_RX_func.c ****             }
 636:Generated_Source\PSoC5/CAN_TX_RX_func.c **** 
 637:Generated_Source\PSoC5/CAN_TX_RX_func.c ****         return (result);
 638:Generated_Source\PSoC5/CAN_TX_RX_func.c ****     }
 639:Generated_Source\PSoC5/CAN_TX_RX_func.c **** #endif /* CAN_TX7_FUNC_ENABLE */
 640:Generated_Source\PSoC5/CAN_TX_RX_func.c **** 
 641:Generated_Source\PSoC5/CAN_TX_RX_func.c **** 
 642:Generated_Source\PSoC5/CAN_TX_RX_func.c **** /*******************************************************************************
 643:Generated_Source\PSoC5/CAN_TX_RX_func.c **** * FUNCTION NAME:   CAN_ReceiveMsg
 644:Generated_Source\PSoC5/CAN_TX_RX_func.c **** ********************************************************************************
 645:Generated_Source\PSoC5/CAN_TX_RX_func.c **** *
 646:Generated_Source\PSoC5/CAN_TX_RX_func.c **** * Summary:
 647:Generated_Source\PSoC5/CAN_TX_RX_func.c **** *  This function is the entry point to Receive Message Interrupt for Basic
 648:Generated_Source\PSoC5/CAN_TX_RX_func.c **** *  mailboxes. Clears the Receive particular Message interrupt flag. Generated
 649:Generated_Source\PSoC5/CAN_TX_RX_func.c **** *  only if one of the Receive mailboxes is designed as Basic.
 650:Generated_Source\PSoC5/CAN_TX_RX_func.c **** *
 651:Generated_Source\PSoC5/CAN_TX_RX_func.c **** * Parameters:
 652:Generated_Source\PSoC5/CAN_TX_RX_func.c **** *  rxMailbox: The mailbox number that trig Receive Message Interrupt.
 653:Generated_Source\PSoC5/CAN_TX_RX_func.c **** *
 654:Generated_Source\PSoC5/CAN_TX_RX_func.c **** * Return:
 655:Generated_Source\PSoC5/CAN_TX_RX_func.c **** *  None.
 656:Generated_Source\PSoC5/CAN_TX_RX_func.c **** *
 657:Generated_Source\PSoC5/CAN_TX_RX_func.c **** * Reentrant:
 658:Generated_Source\PSoC5/CAN_TX_RX_func.c **** *  Depends on the Customer code.
 659:Generated_Source\PSoC5/CAN_TX_RX_func.c **** *
 660:Generated_Source\PSoC5/CAN_TX_RX_func.c **** *******************************************************************************/
 661:Generated_Source\PSoC5/CAN_TX_RX_func.c **** void CAN_ReceiveMsg(uint8 rxMailbox) 
 662:Generated_Source\PSoC5/CAN_TX_RX_func.c **** {
 389              		.loc 1 662 0
 390              		.cfi_startproc
 391              		@ args = 0, pretend = 0, frame = 0
 392              		@ frame_needed = 0, uses_anonymous_args = 0
 393              		@ link register save eliminated.
 394              	.LVL32:
 663:Generated_Source\PSoC5/CAN_TX_RX_func.c ****     #if (CY_PSOC3 || CY_PSOC5)
 664:Generated_Source\PSoC5/CAN_TX_RX_func.c ****         if ((CAN_RX[rxMailbox].rxcmd.byte[0u] & CAN_RX_ACK_MSG) != 0u)
 395              		.loc 1 664 0
 396 0000 4001     		lsls	r0, r0, #5
 397              	.LVL33:
 398 0002 054B     		ldr	r3, .L40
 399 0004 C25C     		ldrb	r2, [r0, r3]	@ zero_extendqisi2
 400 0006 12F0010F 		tst	r2, #1
 401 000a 03D0     		beq	.L38
 665:Generated_Source\PSoC5/CAN_TX_RX_func.c ****     #else  /* CY_PSOC4 */
 666:Generated_Source\PSoC5/CAN_TX_RX_func.c ****         if ((CAN_RX_CMD_REG(rxMailbox) & CAN_RX_ACK_MSG) != 0u)
 667:Generated_Source\PSoC5/CAN_TX_RX_func.c ****     #endif /* CY_PSOC3 || CY_PSOC5 */
 668:Generated_Source\PSoC5/CAN_TX_RX_func.c ****         {
 669:Generated_Source\PSoC5/CAN_TX_RX_func.c ****             /* `#START MESSAGE_BASIC_RECEIVED` */
 670:Generated_Source\PSoC5/CAN_TX_RX_func.c **** 
 671:Generated_Source\PSoC5/CAN_TX_RX_func.c ****             /* `#END` */
ARM GAS  C:\Users\diego\AppData\Local\Temp\cc5EpoZh.s 			page 20


 672:Generated_Source\PSoC5/CAN_TX_RX_func.c **** 
 673:Generated_Source\PSoC5/CAN_TX_RX_func.c ****             #ifdef CAN_RECEIVE_MSG_CALLBACK
 674:Generated_Source\PSoC5/CAN_TX_RX_func.c ****                 CAN_ReceiveMsg_Callback();
 675:Generated_Source\PSoC5/CAN_TX_RX_func.c ****             #endif /* CAN_RECEIVE_MSG_CALLBACK */
 676:Generated_Source\PSoC5/CAN_TX_RX_func.c **** 
 677:Generated_Source\PSoC5/CAN_TX_RX_func.c ****             #if (CY_PSOC3 || CY_PSOC5)
 678:Generated_Source\PSoC5/CAN_TX_RX_func.c ****                 CAN_RX[rxMailbox].rxcmd.byte[0u] |= CAN_RX_ACK_MSG;
 402              		.loc 1 678 0
 403 000c C25C     		ldrb	r2, [r0, r3]	@ zero_extendqisi2
 404 000e 42F00102 		orr	r2, r2, #1
 405 0012 C254     		strb	r2, [r0, r3]
 406              	.L38:
 407 0014 7047     		bx	lr
 408              	.L41:
 409 0016 00BF     		.align	2
 410              	.L40:
 411 0018 A0A00040 		.word	1073782944
 412              		.cfi_endproc
 413              	.LFE67:
 414              		.size	CAN_ReceiveMsg, .-CAN_ReceiveMsg
 415              		.global	__aeabi_fcmpgt
 416              		.section	.text.CAN_ReceiveMsg0,"ax",%progbits
 417              		.align	2
 418              		.global	CAN_ReceiveMsg0
 419              		.thumb
 420              		.thumb_func
 421              		.type	CAN_ReceiveMsg0, %function
 422              	CAN_ReceiveMsg0:
 423              	.LFB68:
 679:Generated_Source\PSoC5/CAN_TX_RX_func.c ****             #else  /* CY_PSOC4 */
 680:Generated_Source\PSoC5/CAN_TX_RX_func.c ****                 CAN_RX_CMD_REG(rxMailbox) |= CAN_RX_ACK_MSG;
 681:Generated_Source\PSoC5/CAN_TX_RX_func.c ****             #endif /* CY_PSOC3 || CY_PSOC5 */
 682:Generated_Source\PSoC5/CAN_TX_RX_func.c ****         }
 683:Generated_Source\PSoC5/CAN_TX_RX_func.c **** }
 684:Generated_Source\PSoC5/CAN_TX_RX_func.c **** 
 685:Generated_Source\PSoC5/CAN_TX_RX_func.c **** 
 686:Generated_Source\PSoC5/CAN_TX_RX_func.c **** #if (CAN_RX0_FUNC_ENABLE)
 687:Generated_Source\PSoC5/CAN_TX_RX_func.c ****     /*******************************************************************************
 688:Generated_Source\PSoC5/CAN_TX_RX_func.c ****     * FUNCTION NAME:   CAN_ReceiveMsg0
 689:Generated_Source\PSoC5/CAN_TX_RX_func.c ****     ********************************************************************************
 690:Generated_Source\PSoC5/CAN_TX_RX_func.c ****     *
 691:Generated_Source\PSoC5/CAN_TX_RX_func.c ****     * Summary:
 692:Generated_Source\PSoC5/CAN_TX_RX_func.c ****     *  This function is the entry point to Receive Message 0 Interrupt. Clears the
 693:Generated_Source\PSoC5/CAN_TX_RX_func.c ****     *  Receive Message 0 interrupt flag. Generated only for the Receive mailbox
 694:Generated_Source\PSoC5/CAN_TX_RX_func.c ****     *  designed as Full.
 695:Generated_Source\PSoC5/CAN_TX_RX_func.c ****     *
 696:Generated_Source\PSoC5/CAN_TX_RX_func.c ****     * Parameters:
 697:Generated_Source\PSoC5/CAN_TX_RX_func.c ****     *  None.
 698:Generated_Source\PSoC5/CAN_TX_RX_func.c ****     *
 699:Generated_Source\PSoC5/CAN_TX_RX_func.c ****     * Return:
 700:Generated_Source\PSoC5/CAN_TX_RX_func.c ****     *  None.
 701:Generated_Source\PSoC5/CAN_TX_RX_func.c ****     *
 702:Generated_Source\PSoC5/CAN_TX_RX_func.c ****     * Reentrant:
 703:Generated_Source\PSoC5/CAN_TX_RX_func.c ****     *  Depends on the Customer code.
 704:Generated_Source\PSoC5/CAN_TX_RX_func.c ****     *
 705:Generated_Source\PSoC5/CAN_TX_RX_func.c ****     *******************************************************************************/
 706:Generated_Source\PSoC5/CAN_TX_RX_func.c ****     void CAN_ReceiveMsg0(void) 
ARM GAS  C:\Users\diego\AppData\Local\Temp\cc5EpoZh.s 			page 21


 707:Generated_Source\PSoC5/CAN_TX_RX_func.c ****     {
 424              		.loc 1 707 0
 425              		.cfi_startproc
 426              		@ args = 0, pretend = 0, frame = 0
 427              		@ frame_needed = 0, uses_anonymous_args = 0
 428              	.LVL34:
 429              	.LBB2:
 708:Generated_Source\PSoC5/CAN_TX_RX_func.c ****         /* `#START MESSAGE_0_RECEIVED` */
 709:Generated_Source\PSoC5/CAN_TX_RX_func.c ****         for (unsigned int i = 0; i < 4; i++) {
 430              		.loc 1 709 0
 431 0000 0023     		movs	r3, #0
 432 0002 17E0     		b	.L43
 433              	.LVL35:
 434              	.L48:
 710:Generated_Source\PSoC5/CAN_TX_RX_func.c ****             action[0].bytes[i] = CAN_RX_DATA_BYTE(0, i);
 435              		.loc 1 710 0
 436 0004 032B     		cmp	r3, #3
 437 0006 02D9     		bls	.L44
 438              		.loc 1 710 0 is_stmt 0 discriminator 1
 439 0008 C3F10B01 		rsb	r1, r3, #11
 440 000c 01E0     		b	.L45
 441              	.L44:
 442              		.loc 1 710 0 discriminator 2
 443 000e C3F10301 		rsb	r1, r3, #3
 444              	.L45:
 445              		.loc 1 710 0 discriminator 4
 446 0012 1D4A     		ldr	r2, .L52
 447 0014 515C     		ldrb	r1, [r2, r1]	@ zero_extendqisi2
 448 0016 1D4A     		ldr	r2, .L52+4
 449 0018 D154     		strb	r1, [r2, r3]
 711:Generated_Source\PSoC5/CAN_TX_RX_func.c ****             action[1].bytes[i] = CAN_RX_DATA_BYTE(0, i + 4);
 450              		.loc 1 711 0 is_stmt 1 discriminator 4
 451 001a 1A1D     		adds	r2, r3, #4
 452 001c 032A     		cmp	r2, #3
 453 001e 02D9     		bls	.L46
 454              		.loc 1 711 0 is_stmt 0 discriminator 1
 455 0020 C3F10701 		rsb	r1, r3, #7
 456 0024 00E0     		b	.L47
 457              	.L46:
 458              		.loc 1 711 0 discriminator 2
 459 0026 D943     		mvns	r1, r3
 460              	.L47:
 461              		.loc 1 711 0 discriminator 4
 462 0028 174A     		ldr	r2, .L52
 463 002a 515C     		ldrb	r1, [r2, r1]	@ zero_extendqisi2
 464 002c 174A     		ldr	r2, .L52+4
 465 002e 1A44     		add	r2, r2, r3
 466 0030 1171     		strb	r1, [r2, #4]
 709:Generated_Source\PSoC5/CAN_TX_RX_func.c ****             action[0].bytes[i] = CAN_RX_DATA_BYTE(0, i);
 467              		.loc 1 709 0 is_stmt 1 discriminator 4
 468 0032 0133     		adds	r3, r3, #1
 469              	.LVL36:
 470              	.L43:
 709:Generated_Source\PSoC5/CAN_TX_RX_func.c ****             action[0].bytes[i] = CAN_RX_DATA_BYTE(0, i);
 471              		.loc 1 709 0 is_stmt 0 discriminator 2
 472 0034 032B     		cmp	r3, #3
 473 0036 E5D9     		bls	.L48
ARM GAS  C:\Users\diego\AppData\Local\Temp\cc5EpoZh.s 			page 22


 474              	.LBE2:
 707:Generated_Source\PSoC5/CAN_TX_RX_func.c ****         /* `#START MESSAGE_0_RECEIVED` */
 475              		.loc 1 707 0 is_stmt 1
 476 0038 10B5     		push	{r4, lr}
 477              		.cfi_def_cfa_offset 8
 478              		.cfi_offset 4, -8
 479              		.cfi_offset 14, -4
 712:Generated_Source\PSoC5/CAN_TX_RX_func.c ****         }
 713:Generated_Source\PSoC5/CAN_TX_RX_func.c ****         led_Write(~led_Read());
 480              		.loc 1 713 0
 481 003a FFF7FEFF 		bl	led_Read
 482              	.LVL37:
 483 003e C043     		mvns	r0, r0
 484 0040 C0B2     		uxtb	r0, r0
 485 0042 FFF7FEFF 		bl	led_Write
 486              	.LVL38:
 714:Generated_Source\PSoC5/CAN_TX_RX_func.c ****         is_positive[0] = (action[0].word > 0.0f ? 1 : 0);
 487              		.loc 1 714 0
 488 0046 4FF00104 		mov	r4, #1
 489 004a 0021     		movs	r1, #0
 490 004c 0F4B     		ldr	r3, .L52+4
 491 004e 1868     		ldr	r0, [r3]	@ float
 492 0050 FFF7FEFF 		bl	__aeabi_fcmpgt
 493              	.LVL39:
 494 0054 08B9     		cbnz	r0, .L49
 495 0056 4FF00004 		mov	r4, #0
 496              	.L49:
 497 005a 0D4B     		ldr	r3, .L52+8
 498 005c 1C70     		strb	r4, [r3]
 715:Generated_Source\PSoC5/CAN_TX_RX_func.c ****         is_positive[1] = (action[1].word > 0.0f ? 1 : 0);
 499              		.loc 1 715 0
 500 005e 4FF00104 		mov	r4, #1
 501 0062 0021     		movs	r1, #0
 502 0064 094B     		ldr	r3, .L52+4
 503 0066 5868     		ldr	r0, [r3, #4]	@ float
 504 0068 FFF7FEFF 		bl	__aeabi_fcmpgt
 505              	.LVL40:
 506 006c 08B9     		cbnz	r0, .L50
 507 006e 4FF00004 		mov	r4, #0
 508              	.L50:
 509 0072 074B     		ldr	r3, .L52+8
 510 0074 5C70     		strb	r4, [r3, #1]
 716:Generated_Source\PSoC5/CAN_TX_RX_func.c ****         received = 1;
 511              		.loc 1 716 0
 512 0076 0122     		movs	r2, #1
 513 0078 064B     		ldr	r3, .L52+12
 514 007a 1A70     		strb	r2, [r3]
 717:Generated_Source\PSoC5/CAN_TX_RX_func.c ****         /* `#END` */
 718:Generated_Source\PSoC5/CAN_TX_RX_func.c **** 
 719:Generated_Source\PSoC5/CAN_TX_RX_func.c ****         #ifdef CAN_RECEIVE_MSG_0_CALLBACK
 720:Generated_Source\PSoC5/CAN_TX_RX_func.c ****             CAN_ReceiveMsg_0_Callback();
 721:Generated_Source\PSoC5/CAN_TX_RX_func.c ****         #endif /* CAN_RECEIVE_MSG_0_CALLBACK */
 722:Generated_Source\PSoC5/CAN_TX_RX_func.c **** 
 723:Generated_Source\PSoC5/CAN_TX_RX_func.c ****         CAN_RX[0u].rxcmd.byte[0u] |= CAN_RX_ACK_MSG;
 515              		.loc 1 723 0
 516 007c 064A     		ldr	r2, .L52+16
 517 007e 1378     		ldrb	r3, [r2]	@ zero_extendqisi2
ARM GAS  C:\Users\diego\AppData\Local\Temp\cc5EpoZh.s 			page 23


 518 0080 43F00103 		orr	r3, r3, #1
 519 0084 1370     		strb	r3, [r2]
 520 0086 10BD     		pop	{r4, pc}
 521              	.L53:
 522              		.align	2
 523              	.L52:
 524 0088 A8A00040 		.word	1073782952
 525 008c 00000000 		.word	action
 526 0090 00000000 		.word	is_positive
 527 0094 00000000 		.word	received
 528 0098 A0A00040 		.word	1073782944
 529              		.cfi_endproc
 530              	.LFE68:
 531              		.size	CAN_ReceiveMsg0, .-CAN_ReceiveMsg0
 532              		.text
 533              	.Letext0:
 534              		.file 2 "c:\\program files (x86)\\cypress\\psoc creator\\4.3\\psoc creator\\import\\gnu\\arm\\5.4.
 535              		.file 3 "c:\\program files (x86)\\cypress\\psoc creator\\4.3\\psoc creator\\import\\gnu\\arm\\5.4.
 536              		.file 4 "Generated_Source\\PSoC5\\cytypes.h"
 537              		.file 5 "Generated_Source\\PSoC5\\CAN.h"
 538              		.file 6 "./aux_functions.h"
 539              		.file 7 "Generated_Source\\PSoC5/core_cm3.h"
 540              		.file 8 "Generated_Source\\PSoC5/led.h"