ARM GAS  C:\Users\diego\AppData\Local\Temp\ccpbqRZc.s 			page 1


   1              		.syntax unified
   2              		.cpu cortex-m3
   3              		.fpu softvfp
   4              		.eabi_attribute 20, 1
   5              		.eabi_attribute 21, 1
   6              		.eabi_attribute 23, 3
   7              		.eabi_attribute 24, 1
   8              		.eabi_attribute 25, 1
   9              		.eabi_attribute 26, 1
  10              		.eabi_attribute 30, 1
  11              		.eabi_attribute 34, 1
  12              		.eabi_attribute 18, 4
  13              		.thumb
  14              		.syntax unified
  15              		.file	"controle_cinematico.c"
  16              		.text
  17              	.Ltext0:
  18              		.cfi_sections	.debug_frame
  19              		.global	__aeabi_f2d
  20              		.global	__aeabi_fmul
  21              		.global	__aeabi_fadd
  22              		.global	__aeabi_dmul
  23              		.global	__aeabi_ddiv
  24              		.global	__aeabi_dadd
  25              		.global	__aeabi_fdiv
  26              		.global	__aeabi_dsub
  27              		.global	__aeabi_d2f
  28              		.section	.text.acaoControle,"ax",%progbits
  29              		.align	2
  30              		.global	acaoControle
  31              		.thumb
  32              		.thumb_func
  33              		.type	acaoControle, %function
  34              	acaoControle:
  35              	.LFB63:
  36              		.file 1 "controle_cinematico.c"
   1:controle_cinematico.c **** /* ========================================
   2:controle_cinematico.c ****  *
   3:controle_cinematico.c ****  * Copyright YOUR COMPANY, THE YEAR
   4:controle_cinematico.c ****  * All Rights Reserved
   5:controle_cinematico.c ****  * UNPUBLISHED, LICENSED SOFTWARE.
   6:controle_cinematico.c ****  *
   7:controle_cinematico.c ****  * CONFIDENTIAL AND PROPRIETARY INFORMATION
   8:controle_cinematico.c ****  * WHICH IS THE PROPERTY OF your company.
   9:controle_cinematico.c ****  *
  10:controle_cinematico.c ****  * ========================================
  11:controle_cinematico.c **** */
  12:controle_cinematico.c **** 
  13:controle_cinematico.c **** #include <math.h>
  14:controle_cinematico.c **** #include <stdlib.h>
  15:controle_cinematico.c **** #include <time.h>
  16:controle_cinematico.c **** 
  17:controle_cinematico.c **** #include "controle_cinematico.h"
  18:controle_cinematico.c **** #include "aux_functions.h"
  19:controle_cinematico.c **** 
  20:controle_cinematico.c **** #define START_X 0.0f
  21:controle_cinematico.c **** #define START_Y 0.0f
ARM GAS  C:\Users\diego\AppData\Local\Temp\ccpbqRZc.s 			page 2


  22:controle_cinematico.c **** 
  23:controle_cinematico.c **** float dxAnt, dyAnt, dthetaAnt,
  24:controle_cinematico.c **** 	  primDet, nVoltas, fator = 1;
  25:controle_cinematico.c **** 
  26:controle_cinematico.c **** char xStr[ 10 ],
  27:controle_cinematico.c ****      yStr[ 10 ],
  28:controle_cinematico.c ****      thetaStr[ 10 ],
  29:controle_cinematico.c ****      msgInstintivo[ 60 ],
  30:controle_cinematico.c ****      msgPlayer[ 64 ] = { 0 },
  31:controle_cinematico.c ****      msgTeste[ 50 ],
  32:controle_cinematico.c ****      sonar[ 6 ][ 10 ];
  33:controle_cinematico.c ****     
  34:controle_cinematico.c **** ControleCinematico cinematico = {
  35:controle_cinematico.c ****     .setPoint = { 0, 0, 0 }, // Pode ser uma referencia de posicao ou de velocidade.
  36:controle_cinematico.c ****     .erro = { 0, 0, 0 },
  37:controle_cinematico.c ****     .erroAnt = { 0, 0, 0 },
  38:controle_cinematico.c ****     .iErro = { 0, 0, 0 },
  39:controle_cinematico.c ****     .acao = { 0, 0, 0 },
  40:controle_cinematico.c ****     
  41:controle_cinematico.c ****     .velNavegacao = .2,
  42:controle_cinematico.c ****     .Kp_p = .1,
  43:controle_cinematico.c ****     .Ki_p = .015,
  44:controle_cinematico.c ****     .Kp_v = .1,
  45:controle_cinematico.c ****     .Ki_v = .015,
  46:controle_cinematico.c ****     .periodo = .05,
  47:controle_cinematico.c ****     
  48:controle_cinematico.c ****     .robo = {
  49:controle_cinematico.c ****         .L = .09,
  50:controle_cinematico.c ****         .R = .07,
  51:controle_cinematico.c ****         
  52:controle_cinematico.c ****         .x = START_X,
  53:controle_cinematico.c ****         .y = START_Y,
  54:controle_cinematico.c ****         .theta = 0,
  55:controle_cinematico.c ****         
  56:controle_cinematico.c ****         .dx = 0,
  57:controle_cinematico.c ****         .dy = 0,
  58:controle_cinematico.c ****         .dtheta = 0,
  59:controle_cinematico.c ****         
  60:controle_cinematico.c ****         .v = 0,
  61:controle_cinematico.c ****         .vn = 0,
  62:controle_cinematico.c ****         .w = 0,
  63:controle_cinematico.c ****         
  64:controle_cinematico.c ****         .motor = {
  65:controle_cinematico.c ****             { //motor[ 0 ]
  66:controle_cinematico.c ****                 .velRad = 0,
  67:controle_cinematico.c ****                 .velLin = 0,
  68:controle_cinematico.c ****                 
  69:controle_cinematico.c ****                 .nPulsosAtual = 0,
  70:controle_cinematico.c ****                 .nPulsosAnterior = 0,
  71:controle_cinematico.c ****                 .difPulsos = 0,
  72:controle_cinematico.c ****                 
  73:controle_cinematico.c ****                 .pwm = 0,
  74:controle_cinematico.c ****                 .direcao = 0
  75:controle_cinematico.c ****             },
  76:controle_cinematico.c ****             
  77:controle_cinematico.c ****             { //motor[ 1 ]
  78:controle_cinematico.c ****                 .velRad = 0,
ARM GAS  C:\Users\diego\AppData\Local\Temp\ccpbqRZc.s 			page 3


  79:controle_cinematico.c ****                 .velLin = 0,
  80:controle_cinematico.c ****                 
  81:controle_cinematico.c ****                 .nPulsosAtual = 0,
  82:controle_cinematico.c ****                 .nPulsosAnterior = 0,
  83:controle_cinematico.c ****                 .difPulsos = 0,
  84:controle_cinematico.c ****                 
  85:controle_cinematico.c ****                 .pwm = 0,
  86:controle_cinematico.c ****                 .direcao = 0
  87:controle_cinematico.c ****             },
  88:controle_cinematico.c ****             
  89:controle_cinematico.c ****             { //motor[ 2 ]
  90:controle_cinematico.c ****                 .velRad = 0,
  91:controle_cinematico.c ****                 .velLin = 0,
  92:controle_cinematico.c ****                 
  93:controle_cinematico.c ****                 .nPulsosAtual = 0,
  94:controle_cinematico.c ****                 .nPulsosAnterior = 0,
  95:controle_cinematico.c ****                 .difPulsos = 0,
  96:controle_cinematico.c ****                 
  97:controle_cinematico.c ****                 .pwm = 0,
  98:controle_cinematico.c ****                 .direcao = 0
  99:controle_cinematico.c ****             }
 100:controle_cinematico.c ****         } // motor
 101:controle_cinematico.c ****     } // robo
 102:controle_cinematico.c **** };
 103:controle_cinematico.c **** 
 104:controle_cinematico.c **** float sox = START_X, soy = START_Y;
 105:controle_cinematico.c **** float _t = 0.0f;
 106:controle_cinematico.c **** float sx = START_X, sy = START_Y;
 107:controle_cinematico.c **** 
 108:controle_cinematico.c **** void acaoControle(ControleCinematico *cc) {
  37              		.loc 1 108 0
  38              		.cfi_startproc
  39              		@ args = 0, pretend = 0, frame = 72
  40              		@ frame_needed = 0, uses_anonymous_args = 0
  41              	.LVL0:
  42 0000 2DE9F04F 		push	{r4, r5, r6, r7, r8, r9, r10, fp, lr}
  43              		.cfi_def_cfa_offset 36
  44              		.cfi_offset 4, -36
  45              		.cfi_offset 5, -32
  46              		.cfi_offset 6, -28
  47              		.cfi_offset 7, -24
  48              		.cfi_offset 8, -20
  49              		.cfi_offset 9, -16
  50              		.cfi_offset 10, -12
  51              		.cfi_offset 11, -8
  52              		.cfi_offset 14, -4
  53 0004 93B0     		sub	sp, sp, #76
  54              		.cfi_def_cfa_offset 112
  55 0006 0446     		mov	r4, r0
 109:controle_cinematico.c ****     float ex, ey, ew,
 110:controle_cinematico.c ****           iex, iey, iew,
 111:controle_cinematico.c ****           t;
 112:controle_cinematico.c ****     
 113:controle_cinematico.c ****     const float Kp_p = cc->Kp_p,
  56              		.loc 1 113 0
  57 0008 036C     		ldr	r3, [r0, #64]	@ float
  58 000a 0893     		str	r3, [sp, #32]	@ float
ARM GAS  C:\Users\diego\AppData\Local\Temp\ccpbqRZc.s 			page 4


  59              	.LVL1:
 114:controle_cinematico.c ****                 Ki_p = cc->Ki_p,
  60              		.loc 1 114 0
  61 000c 426C     		ldr	r2, [r0, #68]	@ float
  62 000e 0A92     		str	r2, [sp, #40]	@ float
  63              	.LVL2:
 115:controle_cinematico.c ****                 Kp_v = cc->Kp_v,
  64              		.loc 1 115 0
  65 0010 866C     		ldr	r6, [r0, #72]	@ float
  66              	.LVL3:
 116:controle_cinematico.c ****                 Ki_v = cc->Ki_v,
  67              		.loc 1 116 0
  68 0012 C56C     		ldr	r5, [r0, #76]	@ float
  69              	.LVL4:
 117:controle_cinematico.c ****                 L = cc->robo.L,
  70              		.loc 1 117 0
  71 0014 416D     		ldr	r1, [r0, #84]	@ float
  72 0016 0C91     		str	r1, [sp, #48]	@ float
  73              	.LVL5:
 118:controle_cinematico.c ****                 R = cc->robo.R;
  74              		.loc 1 118 0
  75 0018 D0F858A0 		ldr	r10, [r0, #88]	@ float
  76              	.LVL6:
 119:controle_cinematico.c ****     
 120:controle_cinematico.c ****     float w1, w2, w3;
 121:controle_cinematico.c ****     
 122:controle_cinematico.c ****     ex = cc->erro[ 0 ];
  77              		.loc 1 122 0
  78 001c D0F80C80 		ldr	r8, [r0, #12]	@ float
  79              	.LVL7:
 123:controle_cinematico.c ****     ey = cc->erro[ 1 ];
  80              		.loc 1 123 0
  81 0020 D0F810B0 		ldr	fp, [r0, #16]	@ float
  82              	.LVL8:
 124:controle_cinematico.c ****     ew = cc->erro[ 2 ];
  83              		.loc 1 124 0
  84 0024 4769     		ldr	r7, [r0, #20]	@ float
  85              	.LVL9:
 125:controle_cinematico.c **** 	
 126:controle_cinematico.c ****     iex = cc->iErro[ 0 ];
  86              		.loc 1 126 0
  87 0026 D0F82490 		ldr	r9, [r0, #36]	@ float
  88              	.LVL10:
 127:controle_cinematico.c ****     iey = cc->iErro[ 1 ];
  89              		.loc 1 127 0
  90 002a D0F828E0 		ldr	lr, [r0, #40]	@ float
  91 002e CDF818E0 		str	lr, [sp, #24]	@ float
  92              	.LVL11:
 128:controle_cinematico.c ****     iew = cc->iErro[ 2 ];
  93              		.loc 1 128 0
  94 0032 D0F82CC0 		ldr	ip, [r0, #44]	@ float
  95 0036 CDF83CC0 		str	ip, [sp, #60]	@ float
  96              	.LVL12:
 129:controle_cinematico.c ****     
 130:controle_cinematico.c ****     t = cc->robo.theta;
 131:controle_cinematico.c ****     
 132:controle_cinematico.c ****     w1 = (cos(t)*(Kp_v*ex + Ki_v*iex))/R + (sin(t)*(Kp_v*ey + Ki_v*iey))/R -
ARM GAS  C:\Users\diego\AppData\Local\Temp\ccpbqRZc.s 			page 5


  97              		.loc 1 132 0
  98 003a 406E     		ldr	r0, [r0, #100]	@ float
  99              	.LVL13:
 100 003c FFF7FEFF 		bl	__aeabi_f2d
 101              	.LVL14:
 102 0040 CDE90201 		strd	r0, [sp, #8]
 103 0044 FFF7FEFF 		bl	cos
 104              	.LVL15:
 105 0048 CDE90001 		strd	r0, [sp]
 106 004c 4146     		mov	r1, r8
 107 004e 3046     		mov	r0, r6
 108 0050 FFF7FEFF 		bl	__aeabi_fmul
 109              	.LVL16:
 110 0054 8046     		mov	r8, r0
 111              	.LVL17:
 112 0056 4946     		mov	r1, r9
 113 0058 2846     		mov	r0, r5
 114 005a FFF7FEFF 		bl	__aeabi_fmul
 115              	.LVL18:
 116 005e 0146     		mov	r1, r0
 117 0060 4046     		mov	r0, r8
 118 0062 FFF7FEFF 		bl	__aeabi_fadd
 119              	.LVL19:
 120 0066 FFF7FEFF 		bl	__aeabi_f2d
 121              	.LVL20:
 122 006a 0246     		mov	r2, r0
 123 006c 0B46     		mov	r3, r1
 124 006e CDE90423 		strd	r2, [sp, #16]
 125 0072 DDE90001 		ldrd	r0, [sp]
 126 0076 FFF7FEFF 		bl	__aeabi_dmul
 127              	.LVL21:
 128 007a 8046     		mov	r8, r0
 129 007c 8946     		mov	r9, r1
 130              	.LVL22:
 131 007e 5046     		mov	r0, r10
 132 0080 FFF7FEFF 		bl	__aeabi_f2d
 133              	.LVL23:
 134 0084 0246     		mov	r2, r0
 135 0086 0B46     		mov	r3, r1
 136 0088 CDE91023 		strd	r2, [sp, #64]
 137 008c 4046     		mov	r0, r8
 138 008e 4946     		mov	r1, r9
 139 0090 FFF7FEFF 		bl	__aeabi_ddiv
 140              	.LVL24:
 141 0094 8046     		mov	r8, r0
 142 0096 8946     		mov	r9, r1
 143 0098 DDE90201 		ldrd	r0, [sp, #8]
 144 009c FFF7FEFF 		bl	sin
 145              	.LVL25:
 146 00a0 CDE90201 		strd	r0, [sp, #8]
 147 00a4 5946     		mov	r1, fp
 148 00a6 3046     		mov	r0, r6
 149 00a8 FFF7FEFF 		bl	__aeabi_fmul
 150              	.LVL26:
 151 00ac 0646     		mov	r6, r0
 152              	.LVL27:
 153 00ae 0699     		ldr	r1, [sp, #24]	@ float
ARM GAS  C:\Users\diego\AppData\Local\Temp\ccpbqRZc.s 			page 6


 154 00b0 2846     		mov	r0, r5
 155 00b2 FFF7FEFF 		bl	__aeabi_fmul
 156              	.LVL28:
 157 00b6 0146     		mov	r1, r0
 158 00b8 3046     		mov	r0, r6
 159 00ba FFF7FEFF 		bl	__aeabi_fadd
 160              	.LVL29:
 161 00be FFF7FEFF 		bl	__aeabi_f2d
 162              	.LVL30:
 163 00c2 0546     		mov	r5, r0
 164              	.LVL31:
 165 00c4 0E46     		mov	r6, r1
 166 00c6 CDE90656 		strd	r5, [sp, #24]
 167              	.LVL32:
 168 00ca 0246     		mov	r2, r0
 169 00cc 0B46     		mov	r3, r1
 170 00ce DDE90201 		ldrd	r0, [sp, #8]
 171 00d2 FFF7FEFF 		bl	__aeabi_dmul
 172              	.LVL33:
 173 00d6 DDE91023 		ldrd	r2, [sp, #64]
 174 00da FFF7FEFF 		bl	__aeabi_ddiv
 175              	.LVL34:
 176 00de 0246     		mov	r2, r0
 177 00e0 0B46     		mov	r3, r1
 178 00e2 4046     		mov	r0, r8
 179 00e4 4946     		mov	r1, r9
 180 00e6 FFF7FEFF 		bl	__aeabi_dadd
 181              	.LVL35:
 182 00ea 8046     		mov	r8, r0
 183 00ec 8946     		mov	r9, r1
 133:controle_cinematico.c ****          (L*(Kp_p*ew + Ki_p*iew))/R;
 184              		.loc 1 133 0
 185 00ee 3946     		mov	r1, r7
 186 00f0 0898     		ldr	r0, [sp, #32]	@ float
 187 00f2 FFF7FEFF 		bl	__aeabi_fmul
 188              	.LVL36:
 189 00f6 0546     		mov	r5, r0
 190 00f8 0F99     		ldr	r1, [sp, #60]	@ float
 191 00fa 0A98     		ldr	r0, [sp, #40]	@ float
 192 00fc FFF7FEFF 		bl	__aeabi_fmul
 193              	.LVL37:
 194 0100 0146     		mov	r1, r0
 195 0102 2846     		mov	r0, r5
 196 0104 FFF7FEFF 		bl	__aeabi_fadd
 197              	.LVL38:
 198 0108 0146     		mov	r1, r0
 199 010a 0C98     		ldr	r0, [sp, #48]	@ float
 200 010c FFF7FEFF 		bl	__aeabi_fmul
 201              	.LVL39:
 202 0110 5146     		mov	r1, r10
 203 0112 FFF7FEFF 		bl	__aeabi_fdiv
 204              	.LVL40:
 132:controle_cinematico.c ****          (L*(Kp_p*ew + Ki_p*iew))/R;
 205              		.loc 1 132 0
 206 0116 FFF7FEFF 		bl	__aeabi_f2d
 207              	.LVL41:
 208 011a CDE90801 		strd	r0, [sp, #32]
ARM GAS  C:\Users\diego\AppData\Local\Temp\ccpbqRZc.s 			page 7


 209              	.LVL42:
 210 011e 0246     		mov	r2, r0
 211 0120 0B46     		mov	r3, r1
 212 0122 4046     		mov	r0, r8
 213 0124 4946     		mov	r1, r9
 214 0126 FFF7FEFF 		bl	__aeabi_dsub
 215              	.LVL43:
 216 012a FFF7FEFF 		bl	__aeabi_d2f
 217              	.LVL44:
 218 012e 0546     		mov	r5, r0
 219              	.LVL45:
 134:controle_cinematico.c ****     
 135:controle_cinematico.c ****     w2 = (sqrt(3)*(3*sin(t) - sqrt(3)*cos(t))*(Kp_v*ex + Ki_v*iex))/(6*R) -
 220              		.loc 1 135 0
 221 0130 0022     		movs	r2, #0
 222 0132 5F4B     		ldr	r3, .L3+8
 223 0134 DDE90201 		ldrd	r0, [sp, #8]
 224              	.LVL46:
 225 0138 FFF7FEFF 		bl	__aeabi_dmul
 226              	.LVL47:
 227 013c 0646     		mov	r6, r0
 228 013e 0F46     		mov	r7, r1
 229              	.LVL48:
 230 0140 59A3     		adr	r3, .L3
 231 0142 D3E90023 		ldrd	r2, [r3]
 232 0146 DDE90001 		ldrd	r0, [sp]
 233 014a FFF7FEFF 		bl	__aeabi_dmul
 234              	.LVL49:
 235 014e 0A46     		mov	r2, r1
 236 0150 0146     		mov	r1, r0
 237 0152 CDE90C12 		strd	r1, [sp, #48]
 238              	.LVL50:
 239 0156 1346     		mov	r3, r2
 240 0158 0246     		mov	r2, r0
 241 015a CDE90A67 		strd	r6, [sp, #40]
 242              	.LVL51:
 243 015e 3046     		mov	r0, r6
 244 0160 3946     		mov	r1, r7
 245 0162 FFF7FEFF 		bl	__aeabi_dsub
 246              	.LVL52:
 247 0166 50A3     		adr	r3, .L3
 248 0168 D3E90023 		ldrd	r2, [r3]
 249 016c FFF7FEFF 		bl	__aeabi_dmul
 250              	.LVL53:
 251 0170 0246     		mov	r2, r0
 252 0172 0B46     		mov	r3, r1
 253 0174 DDE90401 		ldrd	r0, [sp, #16]
 254 0178 FFF7FEFF 		bl	__aeabi_dmul
 255              	.LVL54:
 256 017c 0646     		mov	r6, r0
 257 017e 0F46     		mov	r7, r1
 258 0180 4C49     		ldr	r1, .L3+12
 259 0182 5046     		mov	r0, r10
 260 0184 FFF7FEFF 		bl	__aeabi_fmul
 261              	.LVL55:
 262 0188 FFF7FEFF 		bl	__aeabi_f2d
 263              	.LVL56:
ARM GAS  C:\Users\diego\AppData\Local\Temp\ccpbqRZc.s 			page 8


 264 018c 8046     		mov	r8, r0
 265 018e 8946     		mov	r9, r1
 266 0190 0246     		mov	r2, r0
 267 0192 0B46     		mov	r3, r1
 268 0194 3046     		mov	r0, r6
 269 0196 3946     		mov	r1, r7
 270 0198 FFF7FEFF 		bl	__aeabi_ddiv
 271              	.LVL57:
 272 019c DDE90823 		ldrd	r2, [sp, #32]
 273 01a0 FFF7FEFF 		bl	__aeabi_dsub
 274              	.LVL58:
 275 01a4 8246     		mov	r10, r0
 276              	.LVL59:
 277 01a6 8B46     		mov	fp, r1
 278              	.LVL60:
 136:controle_cinematico.c ****          (L*(Kp_p*ew + Ki_p*iew))/R -
 137:controle_cinematico.c ****          (sqrt(3)*(3*cos(t) + sqrt(3)*sin(t))*(Kp_v*ey + Ki_v*iey))/(6*R);
 279              		.loc 1 137 0
 280 01a8 0022     		movs	r2, #0
 281 01aa 414B     		ldr	r3, .L3+8
 282 01ac DDE90001 		ldrd	r0, [sp]
 283 01b0 FFF7FEFF 		bl	__aeabi_dmul
 284              	.LVL61:
 285 01b4 0646     		mov	r6, r0
 286 01b6 0F46     		mov	r7, r1
 287 01b8 3BA3     		adr	r3, .L3
 288 01ba D3E90023 		ldrd	r2, [r3]
 289 01be DDE90201 		ldrd	r0, [sp, #8]
 290 01c2 FFF7FEFF 		bl	__aeabi_dmul
 291              	.LVL62:
 292 01c6 0A46     		mov	r2, r1
 293 01c8 0146     		mov	r1, r0
 294 01ca CDE90012 		strd	r1, [sp]
 295 01ce 1346     		mov	r3, r2
 296 01d0 0246     		mov	r2, r0
 297 01d2 3046     		mov	r0, r6
 298 01d4 3946     		mov	r1, r7
 299 01d6 FFF7FEFF 		bl	__aeabi_dadd
 300              	.LVL63:
 301 01da 33A3     		adr	r3, .L3
 302 01dc D3E90023 		ldrd	r2, [r3]
 303 01e0 FFF7FEFF 		bl	__aeabi_dmul
 304              	.LVL64:
 305 01e4 0246     		mov	r2, r0
 306 01e6 0B46     		mov	r3, r1
 307 01e8 DDE90601 		ldrd	r0, [sp, #24]
 308 01ec FFF7FEFF 		bl	__aeabi_dmul
 309              	.LVL65:
 310 01f0 4246     		mov	r2, r8
 311 01f2 4B46     		mov	r3, r9
 312 01f4 FFF7FEFF 		bl	__aeabi_ddiv
 313              	.LVL66:
 136:controle_cinematico.c ****          (L*(Kp_p*ew + Ki_p*iew))/R -
 314              		.loc 1 136 0
 315 01f8 0246     		mov	r2, r0
 316 01fa 0B46     		mov	r3, r1
 317 01fc 5046     		mov	r0, r10
ARM GAS  C:\Users\diego\AppData\Local\Temp\ccpbqRZc.s 			page 9


 318 01fe 5946     		mov	r1, fp
 319 0200 FFF7FEFF 		bl	__aeabi_dsub
 320              	.LVL67:
 135:controle_cinematico.c ****          (L*(Kp_p*ew + Ki_p*iew))/R -
 321              		.loc 1 135 0
 322 0204 FFF7FEFF 		bl	__aeabi_d2f
 323              	.LVL68:
 324 0208 8246     		mov	r10, r0
 325              	.LVL69:
 138:controle_cinematico.c ****          
 139:controle_cinematico.c ****     w3 = (sqrt(3)*(3*cos(t) - sqrt(3)*sin(t))*(Kp_v*ey + Ki_v*iey))/(6*R) -
 326              		.loc 1 139 0
 327 020a DDE90023 		ldrd	r2, [sp]
 328 020e 3046     		mov	r0, r6
 329              	.LVL70:
 330 0210 3946     		mov	r1, r7
 331 0212 FFF7FEFF 		bl	__aeabi_dsub
 332              	.LVL71:
 333 0216 24A3     		adr	r3, .L3
 334 0218 D3E90023 		ldrd	r2, [r3]
 335 021c FFF7FEFF 		bl	__aeabi_dmul
 336              	.LVL72:
 337 0220 0246     		mov	r2, r0
 338 0222 0B46     		mov	r3, r1
 339 0224 DDE90601 		ldrd	r0, [sp, #24]
 340 0228 FFF7FEFF 		bl	__aeabi_dmul
 341              	.LVL73:
 342 022c 4246     		mov	r2, r8
 343 022e 4B46     		mov	r3, r9
 344 0230 FFF7FEFF 		bl	__aeabi_ddiv
 345              	.LVL74:
 346 0234 0646     		mov	r6, r0
 347 0236 0F46     		mov	r7, r1
 140:controle_cinematico.c ****          (sqrt(3)*(3*sin(t) + sqrt(3)*cos(t))*(Kp_v*ex + Ki_v*iex))/(6*R) -
 348              		.loc 1 140 0
 349 0238 DDE90C23 		ldrd	r2, [sp, #48]
 350 023c DDE90A01 		ldrd	r0, [sp, #40]
 351 0240 FFF7FEFF 		bl	__aeabi_dadd
 352              	.LVL75:
 353 0244 18A3     		adr	r3, .L3
 354 0246 D3E90023 		ldrd	r2, [r3]
 355 024a FFF7FEFF 		bl	__aeabi_dmul
 356              	.LVL76:
 357 024e 0246     		mov	r2, r0
 358 0250 0B46     		mov	r3, r1
 359 0252 DDE90401 		ldrd	r0, [sp, #16]
 360 0256 FFF7FEFF 		bl	__aeabi_dmul
 361              	.LVL77:
 362 025a 4246     		mov	r2, r8
 363 025c 4B46     		mov	r3, r9
 364 025e FFF7FEFF 		bl	__aeabi_ddiv
 365              	.LVL78:
 139:controle_cinematico.c ****          (sqrt(3)*(3*sin(t) + sqrt(3)*cos(t))*(Kp_v*ex + Ki_v*iex))/(6*R) -
 366              		.loc 1 139 0
 367 0262 0246     		mov	r2, r0
 368 0264 0B46     		mov	r3, r1
 369 0266 3046     		mov	r0, r6
ARM GAS  C:\Users\diego\AppData\Local\Temp\ccpbqRZc.s 			page 10


 370 0268 3946     		mov	r1, r7
 371 026a FFF7FEFF 		bl	__aeabi_dsub
 372              	.LVL79:
 373              		.loc 1 140 0
 374 026e DDE90823 		ldrd	r2, [sp, #32]
 375 0272 FFF7FEFF 		bl	__aeabi_dsub
 376              	.LVL80:
 139:controle_cinematico.c ****          (sqrt(3)*(3*sin(t) + sqrt(3)*cos(t))*(Kp_v*ex + Ki_v*iex))/(6*R) -
 377              		.loc 1 139 0
 378 0276 FFF7FEFF 		bl	__aeabi_d2f
 379              	.LVL81:
 141:controle_cinematico.c ****          (L*(Kp_p*ew + Ki_p*iew))/R;
 142:controle_cinematico.c ****     
 143:controle_cinematico.c ****     // desnecessário?
 144:controle_cinematico.c ****     cc->robo.motor[ 0 ].velRad = w1;
 380              		.loc 1 144 0
 381 027a C4F88050 		str	r5, [r4, #128]	@ float
 145:controle_cinematico.c ****     cc->robo.motor[ 1 ].velRad = w2;
 382              		.loc 1 145 0
 383 027e C4F8A0A0 		str	r10, [r4, #160]	@ float
 146:controle_cinematico.c ****     cc->robo.motor[ 2 ].velRad = w3;
 384              		.loc 1 146 0
 385 0282 C4F8C000 		str	r0, [r4, #192]	@ float
 147:controle_cinematico.c ****     
 148:controle_cinematico.c ****     cc->acao[ 0 ] = w1;
 386              		.loc 1 148 0
 387 0286 2563     		str	r5, [r4, #48]	@ float
 149:controle_cinematico.c ****     cc->acao[ 1 ] = w2;
 388              		.loc 1 149 0
 389 0288 C4F834A0 		str	r10, [r4, #52]	@ float
 150:controle_cinematico.c ****     cc->acao[ 2 ] = w3;
 390              		.loc 1 150 0
 391 028c A063     		str	r0, [r4, #56]	@ float
 151:controle_cinematico.c **** 	
 152:controle_cinematico.c **** 	motor[ 0 ].setPoint = cc->acao[ 0 ];
 392              		.loc 1 152 0
 393 028e 0A4B     		ldr	r3, .L3+16
 394 0290 1D60     		str	r5, [r3]	@ float
 153:controle_cinematico.c **** 	motor[ 1 ].setPoint = cc->acao[ 1 ];
 395              		.loc 1 153 0
 396 0292 C3F84CA0 		str	r10, [r3, #76]	@ float
 154:controle_cinematico.c **** 	motor[ 2 ].setPoint = cc->acao[ 2 ];
 397              		.loc 1 154 0
 398 0296 A26B     		ldr	r2, [r4, #56]	@ float
 399 0298 C3F89820 		str	r2, [r3, #152]	@ float
 155:controle_cinematico.c **** }
 400              		.loc 1 155 0
 401 029c 13B0     		add	sp, sp, #76
 402              		.cfi_def_cfa_offset 36
 403              		@ sp needed
 404 029e BDE8F08F 		pop	{r4, r5, r6, r7, r8, r9, r10, fp, pc}
 405              	.LVL82:
 406              	.L4:
 407 02a2 00BFAFF3 		.align	3
 407      0080
 408              	.L3:
 409 02a8 AA4C58E8 		.word	-396866390
ARM GAS  C:\Users\diego\AppData\Local\Temp\ccpbqRZc.s 			page 11


 410 02ac 7AB6FB3F 		.word	1073460858
 411 02b0 00000840 		.word	1074266112
 412 02b4 0000C040 		.word	1086324736
 413 02b8 00000000 		.word	motor
 414              		.cfi_endproc
 415              	.LFE63:
 416              		.size	acaoControle, .-acaoControle
 417              		.section	.text.saidaModelo,"ax",%progbits
 418              		.align	2
 419              		.global	saidaModelo
 420              		.thumb
 421              		.thumb_func
 422              		.type	saidaModelo, %function
 423              	saidaModelo:
 424              	.LFB64:
 156:controle_cinematico.c **** 
 157:controle_cinematico.c **** void saidaModelo( ControleCinematico *cc ) {
 425              		.loc 1 157 0
 426              		.cfi_startproc
 427              		@ args = 0, pretend = 0, frame = 64
 428              		@ frame_needed = 0, uses_anonymous_args = 0
 429              	.LVL83:
 430 0000 2DE9F04F 		push	{r4, r5, r6, r7, r8, r9, r10, fp, lr}
 431              		.cfi_def_cfa_offset 36
 432              		.cfi_offset 4, -36
 433              		.cfi_offset 5, -32
 434              		.cfi_offset 6, -28
 435              		.cfi_offset 7, -24
 436              		.cfi_offset 8, -20
 437              		.cfi_offset 9, -16
 438              		.cfi_offset 10, -12
 439              		.cfi_offset 11, -8
 440              		.cfi_offset 14, -4
 441 0004 91B0     		sub	sp, sp, #68
 442              		.cfi_def_cfa_offset 104
 443 0006 0446     		mov	r4, r0
 158:controle_cinematico.c ****     const float R = cc->robo.R,
 444              		.loc 1 158 0
 445 0008 856D     		ldr	r5, [r0, #88]	@ float
 446              	.LVL84:
 159:controle_cinematico.c ****                 L = cc->robo.L;
 447              		.loc 1 159 0
 448 000a D0F85480 		ldr	r8, [r0, #84]	@ float
 449              	.LVL85:
 160:controle_cinematico.c **** 
 161:controle_cinematico.c ****     float w1 = cc->acao[ 0 ],
 450              		.loc 1 161 0
 451 000e D0F830A0 		ldr	r10, [r0, #48]	@ float
 452              	.LVL86:
 162:controle_cinematico.c ****           w2 = cc->acao[ 1 ],
 453              		.loc 1 162 0
 454 0012 D0F83490 		ldr	r9, [r0, #52]	@ float
 455              	.LVL87:
 163:controle_cinematico.c ****           w3 = cc->acao[ 2 ],
 456              		.loc 1 163 0
 457 0016 D0F838B0 		ldr	fp, [r0, #56]	@ float
 458              	.LVL88:
ARM GAS  C:\Users\diego\AppData\Local\Temp\ccpbqRZc.s 			page 12


 164:controle_cinematico.c ****           t = cc->robo.theta;
 459              		.loc 1 164 0
 460 001a 466E     		ldr	r6, [r0, #100]	@ float
 461              	.LVL89:
 165:controle_cinematico.c **** 
 166:controle_cinematico.c ****     //*******************************************************************************//
 167:controle_cinematico.c ****     //******************************** ATENÇÃO **************************************//
 168:controle_cinematico.c ****     //*******************************************************************************//
 169:controle_cinematico.c ****     // COMENTAR AS LINHAS ABAIXO IMPLICA EM APLICAR A ACAO DE CONTROLE CALCULADA     //
 170:controle_cinematico.c ****     // PELO CONTROLADOR CINEMÁTICO DIRETAMENTE AO MODELO CINEMÁTICO, AO INVÉS DE     //
 171:controle_cinematico.c ****     // APLICAR A VELOCIDADE REAL DOS MOTORES. ÚTIL PARA TESTES SEM O ROBÔ            //
 172:controle_cinematico.c ****     //*******************************************************************************//
 173:controle_cinematico.c **** 	// w1 = motor[ 0 ]._motor.velRad;
 174:controle_cinematico.c **** 	// w2 = motor[ 1 ]._motor.velRad;
 175:controle_cinematico.c **** 	// w3 = motor[ 2 ]._motor.velRad;
 176:controle_cinematico.c **** 
 177:controle_cinematico.c ****     cc->robo.dx = w2*((R*cos(t))/3 - (sqrt(3)*R*sin(t))/3) + w3*((R*cos(t))/3 + (sqrt(3)*R*sin(t))/
 462              		.loc 1 177 0
 463 001c 4846     		mov	r0, r9
 464              	.LVL90:
 465 001e FFF7FEFF 		bl	__aeabi_f2d
 466              	.LVL91:
 467 0022 CDE90601 		strd	r0, [sp, #24]
 468 0026 2846     		mov	r0, r5
 469 0028 FFF7FEFF 		bl	__aeabi_f2d
 470              	.LVL92:
 471 002c CDE90001 		strd	r0, [sp]
 472 0030 3046     		mov	r0, r6
 473 0032 FFF7FEFF 		bl	__aeabi_f2d
 474              	.LVL93:
 475 0036 0646     		mov	r6, r0
 476              	.LVL94:
 477 0038 0F46     		mov	r7, r1
 478 003a FFF7FEFF 		bl	cos
 479              	.LVL95:
 480 003e CDE90201 		strd	r0, [sp, #8]
 481 0042 0246     		mov	r2, r0
 482 0044 0B46     		mov	r3, r1
 483 0046 DDE90001 		ldrd	r0, [sp]
 484 004a FFF7FEFF 		bl	__aeabi_dmul
 485              	.LVL96:
 486 004e 0022     		movs	r2, #0
 487 0050 674B     		ldr	r3, .L7+8
 488 0052 FFF7FEFF 		bl	__aeabi_ddiv
 489              	.LVL97:
 490 0056 CDE90A01 		strd	r0, [sp, #40]
 491 005a 63A3     		adr	r3, .L7
 492 005c D3E90023 		ldrd	r2, [r3]
 493 0060 DDE90001 		ldrd	r0, [sp]
 494 0064 FFF7FEFF 		bl	__aeabi_dmul
 495              	.LVL98:
 496 0068 CDE90C01 		strd	r0, [sp, #48]
 497 006c 3046     		mov	r0, r6
 498 006e 3946     		mov	r1, r7
 499 0070 FFF7FEFF 		bl	sin
 500              	.LVL99:
 501 0074 CDE90401 		strd	r0, [sp, #16]
ARM GAS  C:\Users\diego\AppData\Local\Temp\ccpbqRZc.s 			page 13


 502 0078 0246     		mov	r2, r0
 503 007a 0B46     		mov	r3, r1
 504 007c DDE90C01 		ldrd	r0, [sp, #48]
 505 0080 FFF7FEFF 		bl	__aeabi_dmul
 506              	.LVL100:
 507 0084 0022     		movs	r2, #0
 508 0086 5A4B     		ldr	r3, .L7+8
 509 0088 FFF7FEFF 		bl	__aeabi_ddiv
 510              	.LVL101:
 511 008c 0646     		mov	r6, r0
 512 008e 0F46     		mov	r7, r1
 513 0090 0246     		mov	r2, r0
 514 0092 0B46     		mov	r3, r1
 515 0094 DDE90A01 		ldrd	r0, [sp, #40]
 516 0098 FFF7FEFF 		bl	__aeabi_dsub
 517              	.LVL102:
 518 009c 0246     		mov	r2, r0
 519 009e 0B46     		mov	r3, r1
 520 00a0 DDE90601 		ldrd	r0, [sp, #24]
 521 00a4 FFF7FEFF 		bl	__aeabi_dmul
 522              	.LVL103:
 523 00a8 CDE90E01 		strd	r0, [sp, #56]
 524 00ac 5846     		mov	r0, fp
 525 00ae FFF7FEFF 		bl	__aeabi_f2d
 526              	.LVL104:
 527 00b2 CDE90801 		strd	r0, [sp, #32]
 528 00b6 3246     		mov	r2, r6
 529 00b8 3B46     		mov	r3, r7
 530 00ba DDE90A01 		ldrd	r0, [sp, #40]
 531 00be FFF7FEFF 		bl	__aeabi_dadd
 532              	.LVL105:
 533 00c2 0246     		mov	r2, r0
 534 00c4 0B46     		mov	r3, r1
 535 00c6 DDE90801 		ldrd	r0, [sp, #32]
 536 00ca FFF7FEFF 		bl	__aeabi_dmul
 537              	.LVL106:
 538 00ce 0246     		mov	r2, r0
 539 00d0 0B46     		mov	r3, r1
 540 00d2 DDE90E01 		ldrd	r0, [sp, #56]
 541 00d6 FFF7FEFF 		bl	__aeabi_dadd
 542              	.LVL107:
 543 00da 0646     		mov	r6, r0
 544 00dc 0F46     		mov	r7, r1
 545 00de 2946     		mov	r1, r5
 546 00e0 2846     		mov	r0, r5
 547 00e2 FFF7FEFF 		bl	__aeabi_fadd
 548              	.LVL108:
 549 00e6 0146     		mov	r1, r0
 550 00e8 5046     		mov	r0, r10
 551 00ea FFF7FEFF 		bl	__aeabi_fmul
 552              	.LVL109:
 553 00ee FFF7FEFF 		bl	__aeabi_f2d
 554              	.LVL110:
 555 00f2 CDE90A01 		strd	r0, [sp, #40]
 556 00f6 0246     		mov	r2, r0
 557 00f8 0B46     		mov	r3, r1
 558 00fa DDE90201 		ldrd	r0, [sp, #8]
ARM GAS  C:\Users\diego\AppData\Local\Temp\ccpbqRZc.s 			page 14


 559 00fe FFF7FEFF 		bl	__aeabi_dmul
 560              	.LVL111:
 561 0102 0022     		movs	r2, #0
 562 0104 3A4B     		ldr	r3, .L7+8
 563 0106 FFF7FEFF 		bl	__aeabi_ddiv
 564              	.LVL112:
 565 010a 0246     		mov	r2, r0
 566 010c 0B46     		mov	r3, r1
 567 010e 3046     		mov	r0, r6
 568 0110 3946     		mov	r1, r7
 569 0112 FFF7FEFF 		bl	__aeabi_dsub
 570              	.LVL113:
 571 0116 FFF7FEFF 		bl	__aeabi_d2f
 572              	.LVL114:
 573 011a A066     		str	r0, [r4, #104]	@ float
 178:controle_cinematico.c ****     cc->robo.dy = w2*((R*sin(t))/3 + (sqrt(3)*R*cos(t))/3) + w3*((R*sin(t))/3 - (sqrt(3)*R*cos(t))/
 574              		.loc 1 178 0
 575 011c DDE90423 		ldrd	r2, [sp, #16]
 576 0120 DDE90001 		ldrd	r0, [sp]
 577 0124 FFF7FEFF 		bl	__aeabi_dmul
 578              	.LVL115:
 579 0128 0022     		movs	r2, #0
 580 012a 314B     		ldr	r3, .L7+8
 581 012c FFF7FEFF 		bl	__aeabi_ddiv
 582              	.LVL116:
 583 0130 CDE90001 		strd	r0, [sp]
 584 0134 DDE90C23 		ldrd	r2, [sp, #48]
 585 0138 DDE90201 		ldrd	r0, [sp, #8]
 586 013c FFF7FEFF 		bl	__aeabi_dmul
 587              	.LVL117:
 588 0140 0022     		movs	r2, #0
 589 0142 2B4B     		ldr	r3, .L7+8
 590 0144 FFF7FEFF 		bl	__aeabi_ddiv
 591              	.LVL118:
 592 0148 0646     		mov	r6, r0
 593 014a 0F46     		mov	r7, r1
 594 014c 0246     		mov	r2, r0
 595 014e 0B46     		mov	r3, r1
 596 0150 DDE90001 		ldrd	r0, [sp]
 597 0154 FFF7FEFF 		bl	__aeabi_dadd
 598              	.LVL119:
 599 0158 0246     		mov	r2, r0
 600 015a 0B46     		mov	r3, r1
 601 015c DDE90601 		ldrd	r0, [sp, #24]
 602 0160 FFF7FEFF 		bl	__aeabi_dmul
 603              	.LVL120:
 604 0164 CDE90201 		strd	r0, [sp, #8]
 605 0168 3246     		mov	r2, r6
 606 016a 3B46     		mov	r3, r7
 607 016c DDE90001 		ldrd	r0, [sp]
 608 0170 FFF7FEFF 		bl	__aeabi_dsub
 609              	.LVL121:
 610 0174 0246     		mov	r2, r0
 611 0176 0B46     		mov	r3, r1
 612 0178 DDE90801 		ldrd	r0, [sp, #32]
 613 017c FFF7FEFF 		bl	__aeabi_dmul
 614              	.LVL122:
ARM GAS  C:\Users\diego\AppData\Local\Temp\ccpbqRZc.s 			page 15


 615 0180 0246     		mov	r2, r0
 616 0182 0B46     		mov	r3, r1
 617 0184 DDE90201 		ldrd	r0, [sp, #8]
 618 0188 FFF7FEFF 		bl	__aeabi_dadd
 619              	.LVL123:
 620 018c 0646     		mov	r6, r0
 621 018e 0F46     		mov	r7, r1
 622 0190 DDE90A23 		ldrd	r2, [sp, #40]
 623 0194 DDE90401 		ldrd	r0, [sp, #16]
 624 0198 FFF7FEFF 		bl	__aeabi_dmul
 625              	.LVL124:
 626 019c 0022     		movs	r2, #0
 627 019e 144B     		ldr	r3, .L7+8
 628 01a0 FFF7FEFF 		bl	__aeabi_ddiv
 629              	.LVL125:
 630 01a4 0246     		mov	r2, r0
 631 01a6 0B46     		mov	r3, r1
 632 01a8 3046     		mov	r0, r6
 633 01aa 3946     		mov	r1, r7
 634 01ac FFF7FEFF 		bl	__aeabi_dsub
 635              	.LVL126:
 636 01b0 FFF7FEFF 		bl	__aeabi_d2f
 637              	.LVL127:
 638 01b4 E066     		str	r0, [r4, #108]	@ float
 179:controle_cinematico.c ****     cc->robo.dtheta = (R*(w1 + w2 + w3))/(3*L);
 639              		.loc 1 179 0
 640 01b6 4946     		mov	r1, r9
 641 01b8 5046     		mov	r0, r10
 642 01ba FFF7FEFF 		bl	__aeabi_fadd
 643              	.LVL128:
 644 01be 0146     		mov	r1, r0
 645 01c0 5846     		mov	r0, fp
 646 01c2 FFF7FEFF 		bl	__aeabi_fadd
 647              	.LVL129:
 648 01c6 0146     		mov	r1, r0
 649 01c8 2846     		mov	r0, r5
 650 01ca FFF7FEFF 		bl	__aeabi_fmul
 651              	.LVL130:
 652 01ce 0546     		mov	r5, r0
 653              	.LVL131:
 654 01d0 0849     		ldr	r1, .L7+12
 655 01d2 4046     		mov	r0, r8
 656 01d4 FFF7FEFF 		bl	__aeabi_fmul
 657              	.LVL132:
 658 01d8 0146     		mov	r1, r0
 659 01da 2846     		mov	r0, r5
 660 01dc FFF7FEFF 		bl	__aeabi_fdiv
 661              	.LVL133:
 662 01e0 2067     		str	r0, [r4, #112]	@ float
 180:controle_cinematico.c **** }
 663              		.loc 1 180 0
 664 01e2 11B0     		add	sp, sp, #68
 665              		.cfi_def_cfa_offset 36
 666              		@ sp needed
 667 01e4 BDE8F08F 		pop	{r4, r5, r6, r7, r8, r9, r10, fp, pc}
 668              	.LVL134:
 669              	.L8:
ARM GAS  C:\Users\diego\AppData\Local\Temp\ccpbqRZc.s 			page 16


 670              		.align	3
 671              	.L7:
 672 01e8 AA4C58E8 		.word	-396866390
 673 01ec 7AB6FB3F 		.word	1073460858
 674 01f0 00000840 		.word	1074266112
 675 01f4 00004040 		.word	1077936128
 676              		.cfi_endproc
 677              	.LFE64:
 678              		.size	saidaModelo, .-saidaModelo
 679              		.global	__aeabi_fcmplt
 680              		.global	__aeabi_fsub
 681              		.section	.text.controle_cinematico_isr,"ax",%progbits
 682              		.align	2
 683              		.global	controle_cinematico_isr
 684              		.thumb
 685              		.thumb_func
 686              		.type	controle_cinematico_isr, %function
 687              	controle_cinematico_isr:
 688              	.LFB65:
 181:controle_cinematico.c **** 
 182:controle_cinematico.c **** extern int flg_recv;
 183:controle_cinematico.c **** 
 184:controle_cinematico.c **** void controle_cinematico_isr() {
 689              		.loc 1 184 0
 690              		.cfi_startproc
 691              		@ args = 0, pretend = 0, frame = 0
 692              		@ frame_needed = 0, uses_anonymous_args = 0
 693 0000 2DE9F84F 		push	{r3, r4, r5, r6, r7, r8, r9, r10, fp, lr}
 694              		.cfi_def_cfa_offset 40
 695              		.cfi_offset 3, -40
 696              		.cfi_offset 4, -36
 697              		.cfi_offset 5, -32
 698              		.cfi_offset 6, -28
 699              		.cfi_offset 7, -24
 700              		.cfi_offset 8, -20
 701              		.cfi_offset 9, -16
 702              		.cfi_offset 10, -12
 703              		.cfi_offset 11, -8
 704              		.cfi_offset 14, -4
 185:controle_cinematico.c ****     //if (!POSICAO) {
 186:controle_cinematico.c ****     //   cinematico.setPoint[2] =
 187:controle_cinematico.c ****     //        atan2(cinematico.setPoint[1], cinematico.setPoint[0]);
 188:controle_cinematico.c ****     //}
 189:controle_cinematico.c ****     
 190:controle_cinematico.c ****     dxAnt = cinematico.robo.dx;
 705              		.loc 1 190 0
 706 0004 604C     		ldr	r4, .L16+16
 707 0006 A26E     		ldr	r2, [r4, #104]	@ float
 708 0008 604B     		ldr	r3, .L16+20
 709 000a 1A60     		str	r2, [r3]	@ float
 191:controle_cinematico.c ****     dyAnt = cinematico.robo.dy;
 710              		.loc 1 191 0
 711 000c E26E     		ldr	r2, [r4, #108]	@ float
 712 000e 604B     		ldr	r3, .L16+24
 713 0010 1A60     		str	r2, [r3]	@ float
 192:controle_cinematico.c ****     dthetaAnt = cinematico.robo.dtheta;
 714              		.loc 1 192 0
ARM GAS  C:\Users\diego\AppData\Local\Temp\ccpbqRZc.s 			page 17


 715 0012 226F     		ldr	r2, [r4, #112]	@ float
 716 0014 5F4B     		ldr	r3, .L16+28
 717 0016 1A60     		str	r2, [r3]	@ float
 193:controle_cinematico.c ****     
 194:controle_cinematico.c ****     saidaModelo(&cinematico);
 718              		.loc 1 194 0
 719 0018 2046     		mov	r0, r4
 720 001a FFF7FEFF 		bl	saidaModelo
 721              	.LVL135:
 195:controle_cinematico.c ****     
 196:controle_cinematico.c ****     /*
 197:controle_cinematico.c ****     cinematico.robo.x +=
 198:controle_cinematico.c ****         (cinematico.periodo / 2) * (cinematico.robo.dx + dxAnt);
 199:controle_cinematico.c ****     cinematico.robo.y +=
 200:controle_cinematico.c ****         (cinematico.periodo / 2) * (cinematico.robo.dy + dyAnt);
 201:controle_cinematico.c ****     cinematico.robo.theta +=
 202:controle_cinematico.c ****         (cinematico.periodo / 2) * (cinematico.robo.dtheta + dthetaAnt);
 203:controle_cinematico.c ****     */
 204:controle_cinematico.c ****     
 205:controle_cinematico.c ****     cinematico.robo.x += cinematico.robo.dx;
 722              		.loc 1 205 0
 723 001e A16E     		ldr	r1, [r4, #104]	@ float
 724 0020 E06D     		ldr	r0, [r4, #92]	@ float
 725 0022 FFF7FEFF 		bl	__aeabi_fadd
 726              	.LVL136:
 727 0026 E065     		str	r0, [r4, #92]	@ float
 206:controle_cinematico.c ****     cinematico.robo.y += cinematico.robo.dy;
 728              		.loc 1 206 0
 729 0028 E16E     		ldr	r1, [r4, #108]	@ float
 730 002a 206E     		ldr	r0, [r4, #96]	@ float
 731 002c FFF7FEFF 		bl	__aeabi_fadd
 732              	.LVL137:
 733 0030 2066     		str	r0, [r4, #96]	@ float
 207:controle_cinematico.c ****     cinematico.robo.theta += cinematico.robo.dtheta;
 734              		.loc 1 207 0
 735 0032 616E     		ldr	r1, [r4, #100]	@ float
 736 0034 206F     		ldr	r0, [r4, #112]	@ float
 737 0036 FFF7FEFF 		bl	__aeabi_fadd
 738              	.LVL138:
 208:controle_cinematico.c ****     
 209:controle_cinematico.c **** 	/*nVoltas = cinematico.robo.theta / ( 2 * __PI );
 210:controle_cinematico.c **** 
 211:controle_cinematico.c **** 	primDet = nVoltas - floor( nVoltas );
 212:controle_cinematico.c **** 
 213:controle_cinematico.c **** 	if ( primDet < .5 )
 214:controle_cinematico.c **** 	    cinematico.robo.theta = 2 * primDet * __PI;
 215:controle_cinematico.c **** 	else
 216:controle_cinematico.c **** 	    cinematico.robo.theta = -( 2 * __PI - 2 * primDet * __PI );*/
 217:controle_cinematico.c **** 	
 218:controle_cinematico.c **** 	nVoltas = cinematico.robo.theta / (2 * CY_M_PI);
 739              		.loc 1 218 0
 740 003a FFF7FEFF 		bl	__aeabi_f2d
 741              	.LVL139:
 742 003e 4EA3     		adr	r3, .L16
 743 0040 D3E90023 		ldrd	r2, [r3]
 744 0044 FFF7FEFF 		bl	__aeabi_ddiv
 745              	.LVL140:
ARM GAS  C:\Users\diego\AppData\Local\Temp\ccpbqRZc.s 			page 18


 746 0048 FFF7FEFF 		bl	__aeabi_d2f
 747              	.LVL141:
 748 004c 0446     		mov	r4, r0
 749 004e 524B     		ldr	r3, .L16+32
 750 0050 1860     		str	r0, [r3]	@ float
 219:controle_cinematico.c **** 
 220:controle_cinematico.c ****     if (nVoltas < 0) {
 751              		.loc 1 220 0
 752 0052 0021     		movs	r1, #0
 753 0054 FFF7FEFF 		bl	__aeabi_fcmplt
 754              	.LVL142:
 755 0058 40B1     		cbz	r0, .L14
 221:controle_cinematico.c ****         nVoltas *= -1;
 756              		.loc 1 221 0
 757 005a 04F10044 		add	r4, r4, #-2147483648
 758 005e 4E4B     		ldr	r3, .L16+32
 759 0060 1C60     		str	r4, [r3]	@ float
 222:controle_cinematico.c ****         fator = -1;
 760              		.loc 1 222 0
 761 0062 4E4A     		ldr	r2, .L16+36
 762 0064 484B     		ldr	r3, .L16+16
 763 0066 C3F8E020 		str	r2, [r3, #224]	@ float
 764 006a 04E0     		b	.L12
 765              	.L14:
 223:controle_cinematico.c ****     } else
 224:controle_cinematico.c ****         fator = 1;
 766              		.loc 1 224 0
 767 006c 4FF07E52 		mov	r2, #1065353216
 768 0070 454B     		ldr	r3, .L16+16
 769 0072 C3F8E020 		str	r2, [r3, #224]	@ float
 770              	.L12:
 225:controle_cinematico.c ****     
 226:controle_cinematico.c **** 	primDet = nVoltas - floor(nVoltas);
 771              		.loc 1 226 0
 772 0076 484B     		ldr	r3, .L16+32
 773 0078 1868     		ldr	r0, [r3]	@ float
 774 007a FFF7FEFF 		bl	__aeabi_f2d
 775              	.LVL143:
 776 007e 0446     		mov	r4, r0
 777 0080 0D46     		mov	r5, r1
 778 0082 FFF7FEFF 		bl	floor
 779              	.LVL144:
 780 0086 0246     		mov	r2, r0
 781 0088 0B46     		mov	r3, r1
 782 008a 2046     		mov	r0, r4
 783 008c 2946     		mov	r1, r5
 784 008e FFF7FEFF 		bl	__aeabi_dsub
 785              	.LVL145:
 786 0092 FFF7FEFF 		bl	__aeabi_d2f
 787              	.LVL146:
 788 0096 0146     		mov	r1, r0
 789 0098 414B     		ldr	r3, .L16+40
 790 009a 1860     		str	r0, [r3]	@ float
 227:controle_cinematico.c **** 
 228:controle_cinematico.c **** 	cinematico.robo.theta = 2 * primDet * CY_M_PI * fator;
 791              		.loc 1 228 0
 792 009c FFF7FEFF 		bl	__aeabi_fadd
ARM GAS  C:\Users\diego\AppData\Local\Temp\ccpbqRZc.s 			page 19


 793              	.LVL147:
 794 00a0 FFF7FEFF 		bl	__aeabi_f2d
 795              	.LVL148:
 796 00a4 36A3     		adr	r3, .L16+8
 797 00a6 D3E90023 		ldrd	r2, [r3]
 798 00aa FFF7FEFF 		bl	__aeabi_dmul
 799              	.LVL149:
 800 00ae 0646     		mov	r6, r0
 801 00b0 0F46     		mov	r7, r1
 802 00b2 354C     		ldr	r4, .L16+16
 803 00b4 D4F8E000 		ldr	r0, [r4, #224]	@ float
 804 00b8 FFF7FEFF 		bl	__aeabi_f2d
 805              	.LVL150:
 806 00bc 3246     		mov	r2, r6
 807 00be 3B46     		mov	r3, r7
 808 00c0 FFF7FEFF 		bl	__aeabi_dmul
 809              	.LVL151:
 810 00c4 FFF7FEFF 		bl	__aeabi_d2f
 811              	.LVL152:
 812 00c8 0546     		mov	r5, r0
 813 00ca 6066     		str	r0, [r4, #100]	@ float
 229:controle_cinematico.c **** 	
 230:controle_cinematico.c ****     cinematico.erroAnt[0] = cinematico.erro[0];
 814              		.loc 1 230 0
 815 00cc D4F80CA0 		ldr	r10, [r4, #12]	@ float
 816 00d0 C4F818A0 		str	r10, [r4, #24]	@ float
 231:controle_cinematico.c ****     cinematico.erroAnt[1] = cinematico.erro[1];
 817              		.loc 1 231 0
 818 00d4 D4F81080 		ldr	r8, [r4, #16]	@ float
 819 00d8 C4F81C80 		str	r8, [r4, #28]	@ float
 232:controle_cinematico.c ****     cinematico.erroAnt[2] = cinematico.erro[2];
 820              		.loc 1 232 0
 821 00dc 6669     		ldr	r6, [r4, #20]	@ float
 822 00de 2662     		str	r6, [r4, #32]	@ float
 233:controle_cinematico.c ****     
 234:controle_cinematico.c ****     // A variável "dados" é atualizada em ambos os casos (controle de posição ou
 235:controle_cinematico.c ****     // de velocidade) para que possa ser utilizada depois para mostrar no display
 236:controle_cinematico.c ****     // ou enviar via CAN ou UART.
 237:controle_cinematico.c ****     if (POSICAO) { // Se for controlador de posicao
 238:controle_cinematico.c ****         cinematico.erro[0] = -(cinematico.setPoint[0] - cinematico.robo.x);
 239:controle_cinematico.c ****         cinematico.erro[1] = -(cinematico.setPoint[1] - cinematico.robo.y);
 240:controle_cinematico.c ****         cinematico.erro[2] = -(cinematico.setPoint[2] - cinematico.robo.theta);
 241:controle_cinematico.c ****     } else { // Se for controlador de velocidade.
 242:controle_cinematico.c ****         cinematico.erro[0] = -(cinematico.setPoint[0] - cinematico.robo.dx);
 823              		.loc 1 242 0
 824 00e0 A16E     		ldr	r1, [r4, #104]	@ float
 825 00e2 2068     		ldr	r0, [r4]	@ float
 826 00e4 FFF7FEFF 		bl	__aeabi_fsub
 827              	.LVL153:
 828 00e8 00F1004B 		add	fp, r0, #-2147483648
 829 00ec C4F80CB0 		str	fp, [r4, #12]	@ float
 243:controle_cinematico.c ****         cinematico.erro[1] = -(cinematico.setPoint[1] - cinematico.robo.dy);
 830              		.loc 1 243 0
 831 00f0 E16E     		ldr	r1, [r4, #108]	@ float
 832 00f2 6068     		ldr	r0, [r4, #4]	@ float
 833 00f4 FFF7FEFF 		bl	__aeabi_fsub
 834              	.LVL154:
ARM GAS  C:\Users\diego\AppData\Local\Temp\ccpbqRZc.s 			page 20


 835 00f8 00F10049 		add	r9, r0, #-2147483648
 836 00fc C4F81090 		str	r9, [r4, #16]	@ float
 244:controle_cinematico.c ****         cinematico.erro[2] = -(cinematico.setPoint[2] - cinematico.robo.theta); // continua theta.
 837              		.loc 1 244 0
 838 0100 2946     		mov	r1, r5
 839 0102 A068     		ldr	r0, [r4, #8]	@ float
 840 0104 FFF7FEFF 		bl	__aeabi_fsub
 841              	.LVL155:
 842 0108 00F10047 		add	r7, r0, #-2147483648
 843 010c 6761     		str	r7, [r4, #20]	@ float
 245:controle_cinematico.c ****     }
 246:controle_cinematico.c ****     
 247:controle_cinematico.c ****     cinematico.iErro[0] +=
 248:controle_cinematico.c ****         (cinematico.periodo / 2) * (cinematico.erro[0] + cinematico.erroAnt[0]);
 844              		.loc 1 248 0
 845 010e 4FF07C51 		mov	r1, #1056964608
 846 0112 206D     		ldr	r0, [r4, #80]	@ float
 847 0114 FFF7FEFF 		bl	__aeabi_fmul
 848              	.LVL156:
 849 0118 0546     		mov	r5, r0
 850 011a 5946     		mov	r1, fp
 851 011c 5046     		mov	r0, r10
 852 011e FFF7FEFF 		bl	__aeabi_fadd
 853              	.LVL157:
 854 0122 0146     		mov	r1, r0
 855 0124 2846     		mov	r0, r5
 856 0126 FFF7FEFF 		bl	__aeabi_fmul
 857              	.LVL158:
 247:controle_cinematico.c ****         (cinematico.periodo / 2) * (cinematico.erro[0] + cinematico.erroAnt[0]);
 858              		.loc 1 247 0
 859 012a 0146     		mov	r1, r0
 860 012c 606A     		ldr	r0, [r4, #36]	@ float
 861 012e FFF7FEFF 		bl	__aeabi_fadd
 862              	.LVL159:
 863 0132 6062     		str	r0, [r4, #36]	@ float
 249:controle_cinematico.c ****     cinematico.iErro[1] +=
 250:controle_cinematico.c ****         (cinematico.periodo / 2) * (cinematico.erro[1] + cinematico.erroAnt[1]);
 864              		.loc 1 250 0
 865 0134 4946     		mov	r1, r9
 866 0136 4046     		mov	r0, r8
 867 0138 FFF7FEFF 		bl	__aeabi_fadd
 868              	.LVL160:
 869 013c 0146     		mov	r1, r0
 870 013e 2846     		mov	r0, r5
 871 0140 FFF7FEFF 		bl	__aeabi_fmul
 872              	.LVL161:
 249:controle_cinematico.c ****     cinematico.iErro[1] +=
 873              		.loc 1 249 0
 874 0144 0146     		mov	r1, r0
 875 0146 A06A     		ldr	r0, [r4, #40]	@ float
 876 0148 FFF7FEFF 		bl	__aeabi_fadd
 877              	.LVL162:
 878 014c A062     		str	r0, [r4, #40]	@ float
 251:controle_cinematico.c ****     cinematico.iErro[2] +=
 252:controle_cinematico.c ****         (cinematico.periodo / 2) * (cinematico.erro[2] + cinematico.erroAnt[2]);
 879              		.loc 1 252 0
 880 014e 3946     		mov	r1, r7
ARM GAS  C:\Users\diego\AppData\Local\Temp\ccpbqRZc.s 			page 21


 881 0150 3046     		mov	r0, r6
 882 0152 FFF7FEFF 		bl	__aeabi_fadd
 883              	.LVL163:
 884 0156 0146     		mov	r1, r0
 885 0158 2846     		mov	r0, r5
 886 015a FFF7FEFF 		bl	__aeabi_fmul
 887              	.LVL164:
 251:controle_cinematico.c ****     cinematico.iErro[2] +=
 888              		.loc 1 251 0
 889 015e 0146     		mov	r1, r0
 890 0160 E06A     		ldr	r0, [r4, #44]	@ float
 891 0162 FFF7FEFF 		bl	__aeabi_fadd
 892              	.LVL165:
 893 0166 E062     		str	r0, [r4, #44]	@ float
 253:controle_cinematico.c ****     
 254:controle_cinematico.c ****     acaoControle(&cinematico);
 894              		.loc 1 254 0
 895 0168 2046     		mov	r0, r4
 896 016a FFF7FEFF 		bl	acaoControle
 897              	.LVL166:
 898 016e BDE8F88F 		pop	{r3, r4, r5, r6, r7, r8, r9, r10, fp, pc}
 899              	.L17:
 900 0172 00BFAFF3 		.align	3
 900      0080
 901              	.L16:
 902 0178 182D4454 		.word	1413754136
 903 017c FB211940 		.word	1075388923
 904 0180 182D4454 		.word	1413754136
 905 0184 FB210940 		.word	1074340347
 906 0188 00000000 		.word	.LANCHOR0
 907 018c 00000000 		.word	dxAnt
 908 0190 00000000 		.word	dyAnt
 909 0194 00000000 		.word	dthetaAnt
 910 0198 00000000 		.word	nVoltas
 911 019c 000080BF 		.word	-1082130432
 912 01a0 00000000 		.word	primDet
 913              		.cfi_endproc
 914              	.LFE65:
 915              		.size	controle_cinematico_isr, .-controle_cinematico_isr
 916              		.global	sy
 917              		.global	sx
 918              		.global	_t
 919              		.global	soy
 920              		.global	sox
 921              		.global	cinematico
 922              		.comm	sonar,60,4
 923              		.comm	msgTeste,50,4
 924              		.global	msgPlayer
 925              		.comm	msgInstintivo,60,4
 926              		.comm	thetaStr,10,4
 927              		.comm	yStr,10,4
 928              		.comm	xStr,10,4
 929              		.global	fator
 930              		.comm	nVoltas,4,4
 931              		.comm	primDet,4,4
 932              		.comm	dthetaAnt,4,4
 933              		.comm	dyAnt,4,4
ARM GAS  C:\Users\diego\AppData\Local\Temp\ccpbqRZc.s 			page 22


 934              		.comm	dxAnt,4,4
 935              		.data
 936              		.align	2
 937              		.set	.LANCHOR0,. + 0
 938              		.type	cinematico, %object
 939              		.size	cinematico, 224
 940              	cinematico:
 941 0000 00000000 		.word	0
 942 0004 00000000 		.word	0
 943 0008 00000000 		.word	0
 944 000c 00000000 		.word	0
 945 0010 00000000 		.word	0
 946 0014 00000000 		.word	0
 947 0018 00000000 		.word	0
 948 001c 00000000 		.word	0
 949 0020 00000000 		.word	0
 950 0024 00000000 		.word	0
 951 0028 00000000 		.word	0
 952 002c 00000000 		.word	0
 953 0030 00000000 		.word	0
 954 0034 00000000 		.word	0
 955 0038 00000000 		.word	0
 956 003c CDCC4C3E 		.word	1045220557
 957 0040 CDCCCC3D 		.word	1036831949
 958 0044 8FC2753C 		.word	1014350479
 959 0048 CDCCCC3D 		.word	1036831949
 960 004c 8FC2753C 		.word	1014350479
 961 0050 CDCC4C3D 		.word	1028443341
 962 0054 EC51B83D 		.word	1035489772
 963 0058 295C8F3D 		.word	1032805417
 964 005c 00000000 		.word	0
 965 0060 00000000 		.word	0
 966 0064 00000000 		.word	0
 967 0068 00000000 		.word	0
 968 006c 00000000 		.word	0
 969 0070 00000000 		.word	0
 970 0074 00000000 		.word	0
 971 0078 00000000 		.word	0
 972 007c 00000000 		.word	0
 973 0080 00000000 		.word	0
 974 0084 00000000 		.space	4
 975 0088 00000000 		.word	0
 976 008c 0000     		.short	0
 977 008e 0000     		.short	0
 978 0090 0000     		.short	0
 979 0092 0000     		.short	0
 980 0094 00       		.byte	0
 981 0095 00000000 		.space	11
 981      00000000 
 981      000000
 982 00a0 00000000 		.word	0
 983 00a4 00000000 		.space	4
 984 00a8 00000000 		.word	0
 985 00ac 0000     		.short	0
 986 00ae 0000     		.short	0
 987 00b0 0000     		.short	0
 988 00b2 0000     		.short	0
ARM GAS  C:\Users\diego\AppData\Local\Temp\ccpbqRZc.s 			page 23


 989 00b4 00       		.byte	0
 990 00b5 00000000 		.space	11
 990      00000000 
 990      000000
 991 00c0 00000000 		.word	0
 992 00c4 00000000 		.space	4
 993 00c8 00000000 		.word	0
 994 00cc 0000     		.short	0
 995 00ce 0000     		.short	0
 996 00d0 0000     		.short	0
 997 00d2 0000     		.short	0
 998 00d4 00       		.byte	0
 999 00d5 00000000 		.space	11
 999      00000000 
 999      000000
 1000              		.type	fator, %object
 1001              		.size	fator, 4
 1002              	fator:
 1003 00e0 0000803F 		.word	1065353216
 1004              		.bss
 1005              		.align	2
 1006              		.type	sy, %object
 1007              		.size	sy, 4
 1008              	sy:
 1009 0000 00000000 		.space	4
 1010              		.type	sx, %object
 1011              		.size	sx, 4
 1012              	sx:
 1013 0004 00000000 		.space	4
 1014              		.type	_t, %object
 1015              		.size	_t, 4
 1016              	_t:
 1017 0008 00000000 		.space	4
 1018              		.type	soy, %object
 1019              		.size	soy, 4
 1020              	soy:
 1021 000c 00000000 		.space	4
 1022              		.type	sox, %object
 1023              		.size	sox, 4
 1024              	sox:
 1025 0010 00000000 		.space	4
 1026              		.type	msgPlayer, %object
 1027              		.size	msgPlayer, 64
 1028              	msgPlayer:
 1029 0014 00000000 		.space	64
 1029      00000000 
 1029      00000000 
 1029      00000000 
 1029      00000000 
 1030              		.text
 1031              	.Letext0:
 1032              		.file 2 "c:\\program files (x86)\\cypress\\psoc creator\\4.3\\psoc creator\\import\\gnu\\arm\\5.4.
 1033              		.file 3 "c:\\program files (x86)\\cypress\\psoc creator\\4.3\\psoc creator\\import\\gnu\\arm\\5.4.
 1034              		.file 4 "Generated_Source\\PSoC5/cytypes.h"
 1035              		.file 5 "motor.h"
 1036              		.file 6 "controle_cinematico.h"
 1037              		.file 7 "Generated_Source\\PSoC5/core_cm3.h"
ARM GAS  C:\Users\diego\AppData\Local\Temp\ccpbqRZc.s 			page 24


 1038              		.file 8 "c:\\program files (x86)\\cypress\\psoc creator\\4.3\\psoc creator\\import\\gnu\\arm\\5.4.