ARM GAS  C:\Users\diego\AppData\Local\Temp\ccGKHW9D.s 			page 1


   1              		.syntax unified
   2              		.cpu cortex-m3
   3              		.fpu softvfp
   4              		.eabi_attribute 20, 1
   5              		.eabi_attribute 21, 1
   6              		.eabi_attribute 23, 3
   7              		.eabi_attribute 24, 1
   8              		.eabi_attribute 25, 1
   9              		.eabi_attribute 26, 1
  10              		.eabi_attribute 30, 1
  11              		.eabi_attribute 34, 1
  12              		.eabi_attribute 18, 4
  13              		.thumb
  14              		.syntax unified
  15              		.file	"fis.c"
  16              		.text
  17              	.Ltext0:
  18              		.cfi_sections	.debug_frame
  19              		.section	.text.create_sentence,"ax",%progbits
  20              		.align	2
  21              		.global	create_sentence
  22              		.thumb
  23              		.thumb_func
  24              		.type	create_sentence, %function
  25              	create_sentence:
  26              	.LFB1:
  27              		.file 1 "fis.c"
   1:fis.c         **** #include <stdlib.h>
   2:fis.c         **** #include <stdio.h>
   3:fis.c         **** #include <stdarg.h>
   4:fis.c         **** #include <string.h>
   5:fis.c         **** #include <limits.h>
   6:fis.c         **** 
   7:fis.c         **** #include "fis.h"
   8:fis.c         **** #include "membership_functions.h"
   9:fis.c         **** 
  10:fis.c         **** #include "UART.h"
  11:fis.c         **** 
  12:fis.c         **** void create_sentence(sentence *p, unsigned char n_vars, ...) {
  28              		.loc 1 12 0
  29              		.cfi_startproc
  30              		@ args = 4, pretend = 12, frame = 8
  31              		@ frame_needed = 0, uses_anonymous_args = 1
  32              	.LVL0:
  33 0000 0EB4     		push	{r1, r2, r3}
  34              		.cfi_def_cfa_offset 12
  35              		.cfi_offset 1, -12
  36              		.cfi_offset 2, -8
  37              		.cfi_offset 3, -4
  38 0002 2DE9F043 		push	{r4, r5, r6, r7, r8, r9, lr}
  39              		.cfi_def_cfa_offset 40
  40              		.cfi_offset 4, -40
  41              		.cfi_offset 5, -36
  42              		.cfi_offset 6, -32
  43              		.cfi_offset 7, -28
  44              		.cfi_offset 8, -24
  45              		.cfi_offset 9, -20
ARM GAS  C:\Users\diego\AppData\Local\Temp\ccGKHW9D.s 			page 2


  46              		.cfi_offset 14, -16
  47 0006 84B0     		sub	sp, sp, #16
  48              		.cfi_def_cfa_offset 56
  49 0008 8046     		mov	r8, r0
  50 000a 0BAB     		add	r3, sp, #44
  51 000c 13F8049B 		ldrb	r9, [r3], #4	@ zero_extendqisi2
  13:fis.c         **** 	va_list vl;
  14:fis.c         **** 
  15:fis.c         **** 	p->n = n_vars;
  52              		.loc 1 15 0
  53 0010 80F87490 		strb	r9, [r0, #116]
  16:fis.c         **** 
  17:fis.c         **** 	linguistic_variable *lvar;
  18:fis.c         **** 	char *value;
  19:fis.c         **** 
  20:fis.c         **** 	va_start(vl, n_vars);
  54              		.loc 1 20 0
  55 0014 0393     		str	r3, [sp, #12]
  56              	.LVL1:
  57              	.LBB2:
  21:fis.c         **** 
  22:fis.c         **** 	for (int v = 0; v < n_vars; v++) {
  58              		.loc 1 22 0
  59 0016 0027     		movs	r7, #0
  60 0018 28E0     		b	.L2
  61              	.LVL2:
  62              	.L7:
  23:fis.c         **** 		lvar = va_arg(vl, linguistic_variable *);
  63              		.loc 1 23 0
  64 001a 039B     		ldr	r3, [sp, #12]
  65 001c 1A1D     		adds	r2, r3, #4
  66 001e 0392     		str	r2, [sp, #12]
  67 0020 1D68     		ldr	r5, [r3]
  68              	.LVL3:
  24:fis.c         **** 
  25:fis.c         **** 		create_linguistic_variable(
  69              		.loc 1 25 0
  70 0022 2B69     		ldr	r3, [r5, #16]	@ float
  71 0024 EA68     		ldr	r2, [r5, #12]	@ float
  72 0026 C7EBC701 		rsb	r1, r7, r7, lsl #3
  73 002a 8800     		lsls	r0, r1, #2
  74 002c 4044     		add	r0, r0, r8
  75 002e 6969     		ldr	r1, [r5, #20]
  76 0030 0191     		str	r1, [sp, #4]
  77 0032 297E     		ldrb	r1, [r5, #24]	@ zero_extendqisi2
  78 0034 0091     		str	r1, [sp]
  79 0036 2946     		mov	r1, r5
  80 0038 0430     		adds	r0, r0, #4
  81 003a FFF7FEFF 		bl	create_linguistic_variable
  82              	.LVL4:
  26:fis.c         **** 			&p->ling_vars[v],
  27:fis.c         **** 			lvar->name,
  28:fis.c         **** 			lvar->range[0],
  29:fis.c         **** 			lvar->range[1],
  30:fis.c         **** 			lvar->n,
  31:fis.c         **** 			lvar->fuzzy_sets);
  32:fis.c         **** 
ARM GAS  C:\Users\diego\AppData\Local\Temp\ccGKHW9D.s 			page 3


  33:fis.c         **** 		value = va_arg(vl, char *);
  83              		.loc 1 33 0
  84 003e 039B     		ldr	r3, [sp, #12]
  85 0040 1A1D     		adds	r2, r3, #4
  86 0042 0392     		str	r2, [sp, #12]
  87 0044 1E68     		ldr	r6, [r3]
  88              	.LVL5:
  89              	.LBB3:
  34:fis.c         **** 
  35:fis.c         **** 		for (int idx = 0; idx < lvar->n; idx++) {
  90              		.loc 1 35 0
  91 0046 0024     		movs	r4, #0
  92 0048 0CE0     		b	.L3
  93              	.LVL6:
  94              	.L6:
  36:fis.c         **** 			if (strcmp(value, lvar->fuzzy_sets[idx].name) == 0) {
  95              		.loc 1 36 0
  96 004a 6969     		ldr	r1, [r5, #20]
  97 004c C4EBC402 		rsb	r2, r4, r4, lsl #3
  98 0050 9300     		lsls	r3, r2, #2
  99 0052 1944     		add	r1, r1, r3
 100 0054 3046     		mov	r0, r6
 101 0056 FFF7FEFF 		bl	strcmp
 102              	.LVL7:
 103 005a 10B9     		cbnz	r0, .L4
  37:fis.c         **** 				p->idxs[v] = idx;
 104              		.loc 1 37 0
 105 005c 08F80740 		strb	r4, [r8, r7]
  38:fis.c         **** 				break;
 106              		.loc 1 38 0
 107 0060 03E0     		b	.L5
 108              	.L4:
  35:fis.c         **** 			if (strcmp(value, lvar->fuzzy_sets[idx].name) == 0) {
 109              		.loc 1 35 0 discriminator 2
 110 0062 0134     		adds	r4, r4, #1
 111              	.LVL8:
 112              	.L3:
  35:fis.c         **** 			if (strcmp(value, lvar->fuzzy_sets[idx].name) == 0) {
 113              		.loc 1 35 0 is_stmt 0 discriminator 1
 114 0064 2B7E     		ldrb	r3, [r5, #24]	@ zero_extendqisi2
 115 0066 9C42     		cmp	r4, r3
 116 0068 EFDB     		blt	.L6
 117              	.L5:
 118              	.LBE3:
  22:fis.c         **** 		lvar = va_arg(vl, linguistic_variable *);
 119              		.loc 1 22 0 is_stmt 1 discriminator 2
 120 006a 0137     		adds	r7, r7, #1
 121              	.LVL9:
 122              	.L2:
  22:fis.c         **** 		lvar = va_arg(vl, linguistic_variable *);
 123              		.loc 1 22 0 is_stmt 0 discriminator 1
 124 006c 4F45     		cmp	r7, r9
 125 006e D4DB     		blt	.L7
 126              	.LBE2:
  39:fis.c         **** 			}
  40:fis.c         **** 		}
  41:fis.c         **** 	}
ARM GAS  C:\Users\diego\AppData\Local\Temp\ccGKHW9D.s 			page 4


  42:fis.c         **** 
  43:fis.c         **** 	va_end(vl);
  44:fis.c         **** }
 127              		.loc 1 44 0 is_stmt 1
 128 0070 04B0     		add	sp, sp, #16
 129              		.cfi_def_cfa_offset 40
 130              		@ sp needed
 131 0072 BDE8F043 		pop	{r4, r5, r6, r7, r8, r9, lr}
 132              		.cfi_restore 14
 133              		.cfi_restore 9
 134              		.cfi_restore 8
 135              		.cfi_restore 7
 136              		.cfi_restore 6
 137              		.cfi_restore 5
 138              		.cfi_restore 4
 139              		.cfi_def_cfa_offset 12
 140              	.LVL10:
 141 0076 03B0     		add	sp, sp, #12
 142              		.cfi_restore 3
 143              		.cfi_restore 2
 144              		.cfi_restore 1
 145              		.cfi_def_cfa_offset 0
 146 0078 7047     		bx	lr
 147              		.cfi_endproc
 148              	.LFE1:
 149              		.size	create_sentence, .-create_sentence
 150              		.global	__aeabi_fcmplt
 151              		.global	__aeabi_fmul
 152              		.global	__aeabi_fadd
 153              		.global	__aeabi_fsub
 154              		.global	__aeabi_fcmpgt
 155              		.global	__aeabi_fdiv
 156 007a 00BF     		.section	.text.inference,"ax",%progbits
 157              		.align	2
 158              		.global	inference
 159              		.thumb
 160              		.thumb_func
 161              		.type	inference, %function
 162              	inference:
 163              	.LFB2:
  45:fis.c         **** 
  46:fis.c         **** void inference(rule *rules, unsigned char n, enum T_NORM and, enum T_NORM implication, float *x, fl
 164              		.loc 1 46 0
 165              		.cfi_startproc
 166              		@ args = 8, pretend = 0, frame = 40
 167              		@ frame_needed = 0, uses_anonymous_args = 0
 168              	.LVL11:
 169 0000 2DE9F04F 		push	{r4, r5, r6, r7, r8, r9, r10, fp, lr}
 170              		.cfi_def_cfa_offset 36
 171              		.cfi_offset 4, -36
 172              		.cfi_offset 5, -32
 173              		.cfi_offset 6, -28
 174              		.cfi_offset 7, -24
 175              		.cfi_offset 8, -20
 176              		.cfi_offset 9, -16
 177              		.cfi_offset 10, -12
 178              		.cfi_offset 11, -8
ARM GAS  C:\Users\diego\AppData\Local\Temp\ccGKHW9D.s 			page 5


 179              		.cfi_offset 14, -4
 180 0004 8DB0     		sub	sp, sp, #52
 181              		.cfi_def_cfa_offset 88
 182 0006 0591     		str	r1, [sp, #20]
 183 0008 0793     		str	r3, [sp, #28]
 184 000a DDF858B0 		ldr	fp, [sp, #88]
 185 000e DDF85C90 		ldr	r9, [sp, #92]
  47:fis.c         ****     float output_area_sum[MAXOUTVARS] = { 0.0f };
 186              		.loc 1 47 0
 187 0012 0027     		movs	r7, #0
 188 0014 0897     		str	r7, [sp, #32]
 189 0016 0997     		str	r7, [sp, #36]
 190 0018 0A97     		str	r7, [sp, #40]
 191 001a 0B97     		str	r7, [sp, #44]
 192              	.LVL12:
 193 001c 8246     		mov	r10, r0
 194 001e 1646     		mov	r6, r2
 195              	.LBB4:
  48:fis.c         **** 	for (int r = 0; r < n; r++) {
 196              		.loc 1 48 0
 197 0020 00E1     		b	.L10
 198              	.LVL13:
 199              	.L34:
 200              	.LBB5:
  49:fis.c         **** 		float conjunction = (and == MIN ?
  50:fis.c         ****             INT_MAX : (and == PROD? 1.0f : -INT_MAX));
 201              		.loc 1 50 0
 202 0022 2EB1     		cbz	r6, .L39
 203              		.loc 1 50 0 is_stmt 0 discriminator 1
 204 0024 012E     		cmp	r6, #1
 205 0026 07D1     		bne	.L40
 206              		.loc 1 50 0
 207 0028 4FF07E53 		mov	r3, #1065353216
 208 002c 0393     		str	r3, [sp, #12]	@ float
 209 002e 06E0     		b	.L11
 210              	.L39:
 211 0030 4FF09E43 		mov	r3, #1325400064
 212 0034 0393     		str	r3, [sp, #12]	@ float
 213 0036 02E0     		b	.L11
 214              	.L40:
 215 0038 4FF04F43 		mov	r3, #-822083584
 216 003c 0393     		str	r3, [sp, #12]	@ float
 217              	.L11:
 218              	.LBB6:
 219              	.LBB7:
  51:fis.c         **** 
  52:fis.c         **** 		for (int in = 0; in < rules[r].n_in; in++) {
  53:fis.c         ****             unsigned char idx = rules[r].lhs.idxs[in];
  54:fis.c         **** 			fuzzy_set *f = &rules[r].lhs.ling_vars[in].fuzzy_sets[idx];
  55:fis.c         **** 			float mu;
  56:fis.c         **** 
  57:fis.c         **** 			switch (f->type) {
  58:fis.c         **** 			case TRIANGULAR:
  59:fis.c         **** 				mu = trimf(x[in], f->params[0], f->params[1], f->params[2]);
  60:fis.c         **** 				break;
  61:fis.c         **** 
  62:fis.c         **** 			case TRAPEZOIDAL:
ARM GAS  C:\Users\diego\AppData\Local\Temp\ccGKHW9D.s 			page 6


  63:fis.c         **** 				mu = trapmf(x[in], f->params[0], f->params[1], f->params[2], f->params[3]);
  64:fis.c         **** 				break;
  65:fis.c         **** 
  66:fis.c         **** 			default:
  67:fis.c         **** 				mu = trimf(x[in], f->params[0], f->params[1], f->params[2]);
  68:fis.c         **** 			}
  69:fis.c         **** 
  70:fis.c         **** 			conjunction = (and == MIN ?
  71:fis.c         ****                 min(conjunction, mu) : (and == PROD ?
  72:fis.c         ****                     conjunction * mu : max(0, conjunction + mu - 1)));
 220              		.loc 1 72 0 is_stmt 1 discriminator 1
 221 003e 0025     		movs	r5, #0
 222 0040 4BE0     		b	.L12
 223              	.LVL14:
 224              	.L22:
  53:fis.c         **** 			fuzzy_set *f = &rules[r].lhs.ling_vars[in].fuzzy_sets[idx];
 225              		.loc 1 53 0
 226 0042 625D     		ldrb	r2, [r4, r5]	@ zero_extendqisi2
 227              	.LVL15:
  54:fis.c         **** 			float mu;
 228              		.loc 1 54 0
 229 0044 C5EBC501 		rsb	r1, r5, r5, lsl #3
 230 0048 8B00     		lsls	r3, r1, #2
 231 004a 1C44     		add	r4, r4, r3
 232 004c A069     		ldr	r0, [r4, #24]
 233 004e C2EBC202 		rsb	r2, r2, r2, lsl #3
 234              	.LVL16:
 235 0052 9300     		lsls	r3, r2, #2
 236 0054 1844     		add	r0, r0, r3
 237              	.LVL17:
  57:fis.c         **** 			case TRIANGULAR:
 238              		.loc 1 57 0
 239 0056 837A     		ldrb	r3, [r0, #10]	@ zero_extendqisi2
 240 0058 13B1     		cbz	r3, .L14
 241 005a 012B     		cmp	r3, #1
 242 005c 09D0     		beq	.L15
 243 005e 13E0     		b	.L47
 244              	.L14:
  59:fis.c         **** 				break;
 245              		.loc 1 59 0
 246 0060 4369     		ldr	r3, [r0, #20]	@ float
 247 0062 0269     		ldr	r2, [r0, #16]	@ float
 248 0064 C168     		ldr	r1, [r0, #12]	@ float
 249 0066 5BF82500 		ldr	r0, [fp, r5, lsl #2]	@ float
 250              	.LVL18:
 251 006a FFF7FEFF 		bl	trimf
 252              	.LVL19:
 253 006e 0446     		mov	r4, r0
 254              	.LVL20:
  60:fis.c         **** 
 255              		.loc 1 60 0
 256 0070 12E0     		b	.L16
 257              	.LVL21:
 258              	.L15:
  63:fis.c         **** 				break;
 259              		.loc 1 63 0
 260 0072 C168     		ldr	r1, [r0, #12]	@ float
ARM GAS  C:\Users\diego\AppData\Local\Temp\ccGKHW9D.s 			page 7


 261 0074 0269     		ldr	r2, [r0, #16]	@ float
 262 0076 4369     		ldr	r3, [r0, #20]	@ float
 263 0078 8069     		ldr	r0, [r0, #24]	@ float
 264              	.LVL22:
 265 007a 0090     		str	r0, [sp]	@ float
 266              	.LVL23:
 267 007c 5BF82500 		ldr	r0, [fp, r5, lsl #2]	@ float
 268 0080 FFF7FEFF 		bl	trapmf
 269              	.LVL24:
 270 0084 0446     		mov	r4, r0
 271              	.LVL25:
  64:fis.c         **** 
 272              		.loc 1 64 0
 273 0086 07E0     		b	.L16
 274              	.LVL26:
 275              	.L47:
  67:fis.c         **** 			}
 276              		.loc 1 67 0
 277 0088 4369     		ldr	r3, [r0, #20]	@ float
 278 008a 0269     		ldr	r2, [r0, #16]	@ float
 279 008c C168     		ldr	r1, [r0, #12]	@ float
 280 008e 5BF82500 		ldr	r0, [fp, r5, lsl #2]	@ float
 281              	.LVL27:
 282 0092 FFF7FEFF 		bl	trimf
 283              	.LVL28:
 284 0096 0446     		mov	r4, r0
 285              	.LVL29:
 286              	.L16:
  71:fis.c         ****                     conjunction * mu : max(0, conjunction + mu - 1)));
 287              		.loc 1 71 0
 288 0098 2EB9     		cbnz	r6, .L17
  71:fis.c         ****                     conjunction * mu : max(0, conjunction + mu - 1)));
 289              		.loc 1 71 0 is_stmt 0 discriminator 1
 290 009a 2146     		mov	r1, r4
 291 009c 0398     		ldr	r0, [sp, #12]	@ float
 292              	.LVL30:
 293 009e FFF7FEFF 		bl	__aeabi_fcmplt
 294              	.LVL31:
 295 00a2 C8B9     		cbnz	r0, .L18
 296 00a4 17E0     		b	.L48
 297              	.LVL32:
 298              	.L17:
 299              		.loc 1 72 0 is_stmt 1
 300 00a6 012E     		cmp	r6, #1
 301 00a8 05D1     		bne	.L20
 302              		.loc 1 72 0 is_stmt 0 discriminator 1
 303 00aa 2146     		mov	r1, r4
 304 00ac 0398     		ldr	r0, [sp, #12]	@ float
 305              	.LVL33:
 306 00ae FFF7FEFF 		bl	__aeabi_fmul
 307              	.LVL34:
 308 00b2 0390     		str	r0, [sp, #12]	@ float
 309              	.LVL35:
 310 00b4 10E0     		b	.L18
 311              	.LVL36:
 312              	.L20:
 313              		.loc 1 72 0 discriminator 2
ARM GAS  C:\Users\diego\AppData\Local\Temp\ccGKHW9D.s 			page 8


 314 00b6 2146     		mov	r1, r4
 315 00b8 0398     		ldr	r0, [sp, #12]	@ float
 316              	.LVL37:
 317 00ba FFF7FEFF 		bl	__aeabi_fadd
 318              	.LVL38:
 319 00be 4FF07E51 		mov	r1, #1065353216
 320 00c2 FFF7FEFF 		bl	__aeabi_fsub
 321              	.LVL39:
 322 00c6 0390     		str	r0, [sp, #12]	@ float
 323              	.LVL40:
 324 00c8 0021     		movs	r1, #0
 325 00ca FFF7FEFF 		bl	__aeabi_fcmplt
 326              	.LVL41:
 327 00ce 18B1     		cbz	r0, .L18
 328              		.loc 1 72 0
 329 00d0 0023     		movs	r3, #0
 330 00d2 0393     		str	r3, [sp, #12]	@ float
 331 00d4 00E0     		b	.L18
 332              	.LVL42:
 333              	.L48:
  71:fis.c         ****                     conjunction * mu : max(0, conjunction + mu - 1)));
 334              		.loc 1 71 0 is_stmt 1
 335 00d6 0394     		str	r4, [sp, #12]	@ float
 336              	.LVL43:
 337              	.L18:
 338              	.LBE7:
  52:fis.c         ****             unsigned char idx = rules[r].lhs.idxs[in];
 339              		.loc 1 52 0 discriminator 2
 340 00d8 0135     		adds	r5, r5, #1
 341              	.LVL44:
 342              	.L12:
  52:fis.c         ****             unsigned char idx = rules[r].lhs.idxs[in];
 343              		.loc 1 52 0 is_stmt 0 discriminator 1
 344 00da F424     		movs	r4, #244
 345 00dc 04FB07A4 		mla	r4, r4, r7, r10
 346 00e0 94F8F030 		ldrb	r3, [r4, #240]	@ zero_extendqisi2
 347 00e4 9D42     		cmp	r5, r3
 348 00e6 ACDB     		blt	.L22
 349              	.LBE6:
  73:fis.c         **** 		}
  74:fis.c         **** 
  75:fis.c         **** 		if (conjunction > 0.0001f) {
 350              		.loc 1 75 0 is_stmt 1
 351 00e8 5E49     		ldr	r1, .L53
 352 00ea 0398     		ldr	r0, [sp, #12]	@ float
 353 00ec FFF7FEFF 		bl	__aeabi_fcmpgt
 354              	.LVL45:
 355 00f0 0028     		cmp	r0, #0
 356 00f2 7BD1     		bne	.L42
 357 00f4 84E0     		b	.L49
 358              	.LVL46:
 359              	.L30:
 360              	.LBB8:
 361              	.LBB9:
  76:fis.c         **** 			for (int out = 0; out < rules[r].n_out; out++) {
  77:fis.c         **** 				if (r == 0) {
 362              		.loc 1 77 0
ARM GAS  C:\Users\diego\AppData\Local\Temp\ccGKHW9D.s 			page 9


 363 00f6 3FB9     		cbnz	r7, .L25
  78:fis.c         **** 					y[out] = 0.0f;
 364              		.loc 1 78 0
 365 00f8 0023     		movs	r3, #0
 366 00fa 49F82530 		str	r3, [r9, r5, lsl #2]	@ float
  79:fis.c         **** 					output_area_sum[out] = 0.0f;
 367              		.loc 1 79 0
 368 00fe 0CAA     		add	r2, sp, #48
 369 0100 02EB8502 		add	r2, r2, r5, lsl #2
 370 0104 42F8103C 		str	r3, [r2, #-16]	@ float
 371              	.L25:
  80:fis.c         **** 				}
  81:fis.c         **** 
  82:fis.c         **** 				float current_area, current_centroid;
  83:fis.c         ****                 unsigned char idx = rules[r].rhs.idxs[out];
 372              		.loc 1 83 0
 373 0108 6319     		adds	r3, r4, r5
 374 010a 93F87830 		ldrb	r3, [r3, #120]	@ zero_extendqisi2
 375              	.LVL47:
  84:fis.c         **** 				fuzzy_set *f = &rules[r].rhs.ling_vars[out].fuzzy_sets[idx];
 376              		.loc 1 84 0
 377 010e C5EBC501 		rsb	r1, r5, r5, lsl #3
 378 0112 8A00     		lsls	r2, r1, #2
 379 0114 2244     		add	r2, r2, r4
 380 0116 D2F89010 		ldr	r1, [r2, #144]
 381 011a C3EBC303 		rsb	r3, r3, r3, lsl #3
 382              	.LVL48:
 383 011e 9A00     		lsls	r2, r3, #2
 384 0120 01EB0208 		add	r8, r1, r2
 385              	.LVL49:
  85:fis.c         **** 
  86:fis.c         **** 				switch (f->type) {
 386              		.loc 1 86 0
 387 0124 98F80A30 		ldrb	r3, [r8, #10]	@ zero_extendqisi2
 388 0128 13B1     		cbz	r3, .L27
 389 012a 012B     		cmp	r3, #1
 390 012c 16D0     		beq	.L28
 391 012e 31E0     		b	.L50
 392              	.L27:
  87:fis.c         **** 				case TRIANGULAR:
  88:fis.c         **** 					current_area = trimf_area(conjunction, f->params[0], f->params[1], f->params[2], implication);
 393              		.loc 1 88 0
 394 0130 D8F80C10 		ldr	r1, [r8, #12]	@ float
 395 0134 D8F81020 		ldr	r2, [r8, #16]	@ float
 396 0138 D8F81430 		ldr	r3, [r8, #20]	@ float
 397 013c 0096     		str	r6, [sp]
 398              	.LVL50:
 399 013e 0398     		ldr	r0, [sp, #12]	@ float
 400 0140 FFF7FEFF 		bl	trimf_area
 401              	.LVL51:
  89:fis.c         **** 					current_centroid = trimf_cogx(conjunction, f->params[0], f->params[1], f->params[2], implicati
 402              		.loc 1 89 0
 403 0144 D8F80C10 		ldr	r1, [r8, #12]	@ float
 404 0148 D8F81020 		ldr	r2, [r8, #16]	@ float
 405 014c D8F81430 		ldr	r3, [r8, #20]	@ float
 406 0150 0096     		str	r6, [sp]
 407 0152 0398     		ldr	r0, [sp, #12]	@ float
ARM GAS  C:\Users\diego\AppData\Local\Temp\ccGKHW9D.s 			page 10


 408 0154 FFF7FEFF 		bl	trimf_cogx
 409              	.LVL52:
 410 0158 0490     		str	r0, [sp, #16]	@ float
 411              	.LVL53:
  90:fis.c         **** 					break;
 412              		.loc 1 90 0
 413 015a 30E0     		b	.L29
 414              	.LVL54:
 415              	.L28:
  91:fis.c         **** 
  92:fis.c         **** 				case TRAPEZOIDAL:
  93:fis.c         **** 					current_area = trapmf_area(conjunction, f->params[0], f->params[1], f->params[2], f->params[3]
 416              		.loc 1 93 0
 417 015c D8F80C10 		ldr	r1, [r8, #12]	@ float
 418 0160 D8F81020 		ldr	r2, [r8, #16]	@ float
 419 0164 D8F81430 		ldr	r3, [r8, #20]	@ float
 420 0168 D8F81800 		ldr	r0, [r8, #24]	@ float
 421 016c 0196     		str	r6, [sp, #4]
 422              	.LVL55:
 423 016e 0090     		str	r0, [sp]	@ float
 424 0170 0398     		ldr	r0, [sp, #12]	@ float
 425 0172 FFF7FEFF 		bl	trapmf_area
 426              	.LVL56:
  94:fis.c         **** 					current_centroid = trapmf_cogx(conjunction, f->params[0], f->params[1], f->params[2], f->param
 427              		.loc 1 94 0
 428 0176 D8F80C10 		ldr	r1, [r8, #12]	@ float
 429 017a D8F81020 		ldr	r2, [r8, #16]	@ float
 430 017e D8F81430 		ldr	r3, [r8, #20]	@ float
 431 0182 D8F81800 		ldr	r0, [r8, #24]	@ float
 432 0186 0196     		str	r6, [sp, #4]
 433 0188 0090     		str	r0, [sp]	@ float
 434 018a 0398     		ldr	r0, [sp, #12]	@ float
 435 018c FFF7FEFF 		bl	trapmf_cogx
 436              	.LVL57:
 437 0190 0490     		str	r0, [sp, #16]	@ float
 438              	.LVL58:
  95:fis.c         **** 					break;
 439              		.loc 1 95 0
 440 0192 14E0     		b	.L29
 441              	.LVL59:
 442              	.L50:
  96:fis.c         **** 
  97:fis.c         **** 				default:
  98:fis.c         **** 					current_area = trimf_area(conjunction, f->params[0], f->params[1], f->params[2], implication);
 443              		.loc 1 98 0
 444 0194 D8F80C10 		ldr	r1, [r8, #12]	@ float
 445 0198 D8F81020 		ldr	r2, [r8, #16]	@ float
 446 019c D8F81430 		ldr	r3, [r8, #20]	@ float
 447 01a0 0096     		str	r6, [sp]
 448              	.LVL60:
 449 01a2 0398     		ldr	r0, [sp, #12]	@ float
 450 01a4 FFF7FEFF 		bl	trimf_area
 451              	.LVL61:
  99:fis.c         **** 					current_centroid = trimf_cogx(conjunction, f->params[0], f->params[1], f->params[2], implicati
 452              		.loc 1 99 0
 453 01a8 D8F80C10 		ldr	r1, [r8, #12]	@ float
 454 01ac D8F81020 		ldr	r2, [r8, #16]	@ float
ARM GAS  C:\Users\diego\AppData\Local\Temp\ccGKHW9D.s 			page 11


 455 01b0 D8F81430 		ldr	r3, [r8, #20]	@ float
 456 01b4 0096     		str	r6, [sp]
 457 01b6 0398     		ldr	r0, [sp, #12]	@ float
 458 01b8 FFF7FEFF 		bl	trimf_cogx
 459              	.LVL62:
 460 01bc 0490     		str	r0, [sp, #16]	@ float
 461              	.LVL63:
 462              	.L29:
 100:fis.c         **** 				}
 101:fis.c         **** 
 102:fis.c         **** 				output_area_sum[out] += conjunction;
 463              		.loc 1 102 0 discriminator 2
 464 01be 0CAB     		add	r3, sp, #48
 465 01c0 03EB8508 		add	r8, r3, r5, lsl #2
 466              	.LVL64:
 467 01c4 0399     		ldr	r1, [sp, #12]	@ float
 468 01c6 58F8100C 		ldr	r0, [r8, #-16]	@ float
 469 01ca FFF7FEFF 		bl	__aeabi_fadd
 470              	.LVL65:
 471 01ce 48F8100C 		str	r0, [r8, #-16]	@ float
 103:fis.c         **** 				y[out] += (current_centroid) * (conjunction);
 472              		.loc 1 103 0 discriminator 2
 473 01d2 0499     		ldr	r1, [sp, #16]	@ float
 474 01d4 0398     		ldr	r0, [sp, #12]	@ float
 475 01d6 FFF7FEFF 		bl	__aeabi_fmul
 476              	.LVL66:
 477 01da 0146     		mov	r1, r0
 478 01dc 59F82500 		ldr	r0, [r9, r5, lsl #2]	@ float
 479 01e0 FFF7FEFF 		bl	__aeabi_fadd
 480              	.LVL67:
 481 01e4 49F82500 		str	r0, [r9, r5, lsl #2]	@ float
 482              	.LBE9:
  76:fis.c         **** 				if (r == 0) {
 483              		.loc 1 76 0 discriminator 2
 484 01e8 0135     		adds	r5, r5, #1
 485              	.LVL68:
 486 01ea 02E0     		b	.L23
 487              	.LVL69:
 488              	.L42:
 489              	.LBE8:
 490 01ec 0025     		movs	r5, #0
 491              	.LVL70:
 492 01ee 0696     		str	r6, [sp, #24]
 493 01f0 079E     		ldr	r6, [sp, #28]
 494              	.L23:
 495              	.LVL71:
 496              	.LBB10:
  76:fis.c         **** 				if (r == 0) {
 497              		.loc 1 76 0 is_stmt 0 discriminator 1
 498 01f2 94F8F130 		ldrb	r3, [r4, #241]	@ zero_extendqisi2
 499 01f6 9D42     		cmp	r5, r3
 500 01f8 FFF67DAF 		blt	.L30
 501 01fc 069E     		ldr	r6, [sp, #24]
 502 01fe 10E0     		b	.L31
 503              	.LVL72:
 504              	.L49:
 505              	.LBE10:
ARM GAS  C:\Users\diego\AppData\Local\Temp\ccGKHW9D.s 			page 12


 104:fis.c         **** 			}
 105:fis.c         **** 		}
 106:fis.c         **** 		else if (r == 0) {
 506              		.loc 1 106 0 is_stmt 1
 507 0200 57B1     		cbz	r7, .L43
 508              	.LBB11:
 509 0202 0EE0     		b	.L31
 510              	.LVL73:
 511              	.L33:
 107:fis.c         **** 			for (int out = 0; out < rules[r].n_out; out++) {
 108:fis.c         **** 				y[out] = 0.0f;
 512              		.loc 1 108 0 discriminator 3
 513 0204 0022     		movs	r2, #0
 514 0206 49F82320 		str	r2, [r9, r3, lsl #2]	@ float
 109:fis.c         **** 				output_area_sum[out] = 0.0f;
 515              		.loc 1 109 0 discriminator 3
 516 020a 0CA9     		add	r1, sp, #48
 517 020c 01EB8301 		add	r1, r1, r3, lsl #2
 518 0210 41F8102C 		str	r2, [r1, #-16]	@ float
 107:fis.c         **** 			for (int out = 0; out < rules[r].n_out; out++) {
 519              		.loc 1 107 0 discriminator 3
 520 0214 0133     		adds	r3, r3, #1
 521              	.LVL74:
 522 0216 00E0     		b	.L32
 523              	.LVL75:
 524              	.L43:
 525              	.LBE11:
 526 0218 0023     		movs	r3, #0
 527              	.L32:
 528              	.LVL76:
 529              	.LBB12:
 107:fis.c         **** 			for (int out = 0; out < rules[r].n_out; out++) {
 530              		.loc 1 107 0 is_stmt 0 discriminator 1
 531 021a 94F8F120 		ldrb	r2, [r4, #241]	@ zero_extendqisi2
 532 021e 9342     		cmp	r3, r2
 533 0220 F0DB     		blt	.L33
 534              	.LVL77:
 535              	.L31:
 536              	.LBE12:
 537              	.LBE5:
  48:fis.c         **** 		float conjunction = (and == MIN ?
 538              		.loc 1 48 0 is_stmt 1 discriminator 2
 539 0222 0137     		adds	r7, r7, #1
 540              	.LVL78:
 541              	.L10:
  48:fis.c         **** 		float conjunction = (and == MIN ?
 542              		.loc 1 48 0 is_stmt 0 discriminator 1
 543 0224 059B     		ldr	r3, [sp, #20]
 544 0226 9F42     		cmp	r7, r3
 545 0228 FFF6FBAE 		blt	.L34
 546 022c 0024     		movs	r4, #0
 547 022e 13E0     		b	.L35
 548              	.LVL79:
 549              	.L38:
 550              	.LBE4:
 551              	.LBB13:
 110:fis.c         **** 			}
ARM GAS  C:\Users\diego\AppData\Local\Temp\ccGKHW9D.s 			page 13


 111:fis.c         **** 		}
 112:fis.c         **** 	}
 113:fis.c         ****     
 114:fis.c         ****     for (int out = 0; out < MAXOUTVARS; out++)
 115:fis.c         **** 	    y[out] = (output_area_sum[out] > 0.0f ? y[out] / output_area_sum[out] : 0.0f);
 552              		.loc 1 115 0 is_stmt 1
 553 0230 A500     		lsls	r5, r4, #2
 554 0232 0CAB     		add	r3, sp, #48
 555 0234 2B44     		add	r3, r3, r5
 556 0236 53F8106C 		ldr	r6, [r3, #-16]	@ float
 557 023a 0021     		movs	r1, #0
 558 023c 3046     		mov	r0, r6
 559 023e FFF7FEFF 		bl	__aeabi_fcmpgt
 560              	.LVL80:
 561 0242 28B1     		cbz	r0, .L51
 562              		.loc 1 115 0 is_stmt 0 discriminator 1
 563 0244 3146     		mov	r1, r6
 564 0246 59F82400 		ldr	r0, [r9, r4, lsl #2]	@ float
 565 024a FFF7FEFF 		bl	__aeabi_fdiv
 566              	.LVL81:
 567 024e 00E0     		b	.L36
 568              	.L51:
 569              		.loc 1 115 0
 570 0250 0020     		movs	r0, #0
 571              	.L36:
 572              		.loc 1 115 0 discriminator 4
 573 0252 49F80500 		str	r0, [r9, r5]	@ float
 114:fis.c         **** 	    y[out] = (output_area_sum[out] > 0.0f ? y[out] / output_area_sum[out] : 0.0f);
 574              		.loc 1 114 0 is_stmt 1 discriminator 4
 575 0256 0134     		adds	r4, r4, #1
 576              	.LVL82:
 577              	.L35:
 114:fis.c         **** 	    y[out] = (output_area_sum[out] > 0.0f ? y[out] / output_area_sum[out] : 0.0f);
 578              		.loc 1 114 0 is_stmt 0 discriminator 2
 579 0258 032C     		cmp	r4, #3
 580 025a E9DD     		ble	.L38
 581              	.LBE13:
 116:fis.c         **** }
 582              		.loc 1 116 0 is_stmt 1
 583 025c 0DB0     		add	sp, sp, #52
 584              		.cfi_def_cfa_offset 36
 585              		@ sp needed
 586 025e BDE8F08F 		pop	{r4, r5, r6, r7, r8, r9, r10, fp, pc}
 587              	.LVL83:
 588              	.L54:
 589 0262 00BF     		.align	2
 590              	.L53:
 591 0264 17B7D138 		.word	953267991
 592              		.cfi_endproc
 593              	.LFE2:
 594              		.size	inference, .-inference
 595              		.text
 596              	.Letext0:
 597              		.file 2 "c:\\program files (x86)\\cypress\\psoc creator\\4.3\\psoc creator\\import\\gnu\\arm\\5.4.
 598              		.file 3 "defines.h"
 599              		.file 4 "fuzzy_set.h"
 600              		.file 5 "linguistic_variable.h"
ARM GAS  C:\Users\diego\AppData\Local\Temp\ccGKHW9D.s 			page 14


 601              		.file 6 "fis.h"
 602              		.file 7 "c:\\program files (x86)\\cypress\\psoc creator\\4.3\\psoc creator\\import\\gnu\\arm\\5.4.
 603              		.file 8 "membership_functions.h"
 604              		.file 9 "<built-in>"