ARM GAS  C:\Users\diego\AppData\Local\Temp\ccgjvv5N.s 			page 1


   1              		.syntax unified
   2              		.cpu cortex-m3
   3              		.fpu softvfp
   4              		.eabi_attribute 20, 1
   5              		.eabi_attribute 21, 1
   6              		.eabi_attribute 23, 3
   7              		.eabi_attribute 24, 1
   8              		.eabi_attribute 25, 1
   9              		.eabi_attribute 26, 1
  10              		.eabi_attribute 30, 1
  11              		.eabi_attribute 34, 1
  12              		.eabi_attribute 18, 4
  13              		.thumb
  14              		.syntax unified
  15              		.file	"fuzzy_set.c"
  16              		.text
  17              	.Ltext0:
  18              		.cfi_sections	.debug_frame
  19              		.section	.text._strcpy,"ax",%progbits
  20              		.align	2
  21              		.global	_strcpy
  22              		.thumb
  23              		.thumb_func
  24              		.type	_strcpy, %function
  25              	_strcpy:
  26              	.LFB0:
  27              		.file 1 "fuzzy_set.c"
   1:fuzzy_set.c   **** #include <stdarg.h>
   2:fuzzy_set.c   **** #include <string.h>
   3:fuzzy_set.c   **** 
   4:fuzzy_set.c   **** #include "fuzzy_set.h"
   5:fuzzy_set.c   **** 
   6:fuzzy_set.c   **** void _strcpy(char *dst, const char *src, int len) {
  28              		.loc 1 6 0
  29              		.cfi_startproc
  30              		@ args = 0, pretend = 0, frame = 0
  31              		@ frame_needed = 0, uses_anonymous_args = 0
  32              		@ link register save eliminated.
  33              	.LVL0:
  34 0000 10B4     		push	{r4}
  35              		.cfi_def_cfa_offset 4
  36              		.cfi_offset 4, -4
  37              	.LVL1:
  38              	.LBB2:
   7:fuzzy_set.c   ****     for (int i = 0; i < len - 1; i++) dst[i] = src[i];
  39              		.loc 1 7 0
  40 0002 0023     		movs	r3, #0
  41 0004 02E0     		b	.L2
  42              	.LVL2:
  43              	.L3:
  44              		.loc 1 7 0 is_stmt 0 discriminator 3
  45 0006 CC5C     		ldrb	r4, [r1, r3]	@ zero_extendqisi2
  46 0008 C454     		strb	r4, [r0, r3]
  47 000a 0133     		adds	r3, r3, #1
  48              	.LVL3:
  49              	.L2:
  50              		.loc 1 7 0 discriminator 1
ARM GAS  C:\Users\diego\AppData\Local\Temp\ccgjvv5N.s 			page 2


  51 000c 541E     		subs	r4, r2, #1
  52 000e A342     		cmp	r3, r4
  53 0010 F9DB     		blt	.L3
  54              	.LBE2:
   8:fuzzy_set.c   **** }
  55              		.loc 1 8 0 is_stmt 1
  56 0012 10BC     		pop	{r4}
  57              		.cfi_restore 4
  58              		.cfi_def_cfa_offset 0
  59 0014 7047     		bx	lr
  60              		.cfi_endproc
  61              	.LFE0:
  62              		.size	_strcpy, .-_strcpy
  63              		.global	__aeabi_d2f
  64 0016 00BF     		.section	.text.create_fuzzy_set,"ax",%progbits
  65              		.align	2
  66              		.global	create_fuzzy_set
  67              		.thumb
  68              		.thumb_func
  69              		.type	create_fuzzy_set, %function
  70              	create_fuzzy_set:
  71              	.LFB1:
   9:fuzzy_set.c   **** 
  10:fuzzy_set.c   **** void create_fuzzy_set(
  11:fuzzy_set.c   ****     fuzzy_set *fs,
  12:fuzzy_set.c   ****     const char *name,
  13:fuzzy_set.c   ****     enum MF_TYPE type,
  14:fuzzy_set.c   ****     double p1, double p2, double p3, double p4)
  15:fuzzy_set.c   **** {
  72              		.loc 1 15 0
  73              		.cfi_startproc
  74              		@ args = 32, pretend = 0, frame = 0
  75              		@ frame_needed = 0, uses_anonymous_args = 0
  76              	.LVL4:
  77 0000 38B5     		push	{r3, r4, r5, lr}
  78              		.cfi_def_cfa_offset 16
  79              		.cfi_offset 3, -16
  80              		.cfi_offset 4, -12
  81              		.cfi_offset 5, -8
  82              		.cfi_offset 14, -4
  83 0002 0446     		mov	r4, r0
  84 0004 1546     		mov	r5, r2
  16:fuzzy_set.c   ****     strcpy(fs->name, name);
  85              		.loc 1 16 0
  86 0006 FFF7FEFF 		bl	strcpy
  87              	.LVL5:
  17:fuzzy_set.c   ****     fs->type = type;
  88              		.loc 1 17 0
  89 000a A572     		strb	r5, [r4, #10]
  18:fuzzy_set.c   ****     fs->params[0] = p1;
  90              		.loc 1 18 0
  91 000c DDE90401 		ldrd	r0, [sp, #16]
  92 0010 FFF7FEFF 		bl	__aeabi_d2f
  93              	.LVL6:
  94 0014 E060     		str	r0, [r4, #12]	@ float
  19:fuzzy_set.c   ****     fs->params[1] = p2;
  95              		.loc 1 19 0
ARM GAS  C:\Users\diego\AppData\Local\Temp\ccgjvv5N.s 			page 3


  96 0016 DDE90601 		ldrd	r0, [sp, #24]
  97 001a FFF7FEFF 		bl	__aeabi_d2f
  98              	.LVL7:
  99 001e 2061     		str	r0, [r4, #16]	@ float
  20:fuzzy_set.c   ****     fs->params[2] = p3;
 100              		.loc 1 20 0
 101 0020 DDE90801 		ldrd	r0, [sp, #32]
 102 0024 FFF7FEFF 		bl	__aeabi_d2f
 103              	.LVL8:
 104 0028 6061     		str	r0, [r4, #20]	@ float
  21:fuzzy_set.c   ****     fs->params[3] = p4;
 105              		.loc 1 21 0
 106 002a DDE90A01 		ldrd	r0, [sp, #40]
 107 002e FFF7FEFF 		bl	__aeabi_d2f
 108              	.LVL9:
 109 0032 A061     		str	r0, [r4, #24]	@ float
 110 0034 38BD     		pop	{r3, r4, r5, pc}
 111              		.cfi_endproc
 112              	.LFE1:
 113              		.size	create_fuzzy_set, .-create_fuzzy_set
 114 0036 00BF     		.section	.text.create_fuzzy_sets,"ax",%progbits
 115              		.align	2
 116              		.global	create_fuzzy_sets
 117              		.thumb
 118              		.thumb_func
 119              		.type	create_fuzzy_sets, %function
 120              	create_fuzzy_sets:
 121              	.LFB2:
  22:fuzzy_set.c   **** }
  23:fuzzy_set.c   **** 
  24:fuzzy_set.c   **** void create_fuzzy_sets(volatile fuzzy_set fs[], unsigned char n_sets, ...) {
 122              		.loc 1 24 0
 123              		.cfi_startproc
 124              		@ args = 4, pretend = 12, frame = 8
 125              		@ frame_needed = 0, uses_anonymous_args = 1
 126              		@ link register save eliminated.
 127              	.LVL10:
 128 0000 0EB4     		push	{r1, r2, r3}
 129              		.cfi_def_cfa_offset 12
 130              		.cfi_offset 1, -12
 131              		.cfi_offset 2, -8
 132              		.cfi_offset 3, -4
 133 0002 83B0     		sub	sp, sp, #12
 134              		.cfi_def_cfa_offset 24
 135 0004 03AB     		add	r3, sp, #12
 136 0006 13F8042B 		ldrb	r2, [r3], #4	@ zero_extendqisi2
  25:fuzzy_set.c   **** 	va_list vl;
  26:fuzzy_set.c   **** 	va_start(vl, n_sets);
 137              		.loc 1 26 0
 138 000a 0193     		str	r3, [sp, #4]
 139              	.LVL11:
 140              	.LBB3:
  27:fuzzy_set.c   **** 
  28:fuzzy_set.c   **** 	for (int s = 0; s < n_sets; s++) {
 141              		.loc 1 28 0
 142 000c 12B1     		cbz	r2, .L7
  29:fuzzy_set.c   **** 		//volatile char *name = va_arg(vl, char *);
ARM GAS  C:\Users\diego\AppData\Local\Temp\ccgjvv5N.s 			page 4


  30:fuzzy_set.c   ****         //int len = strlen(name);
  31:fuzzy_set.c   **** 		//strcpy_s(fs[s].name, strlen(name) + 1, name);
  32:fuzzy_set.c   ****         //strcpy(fs[s].name, name);
  33:fuzzy_set.c   ****         va_arg(vl, char *);
 143              		.loc 1 33 0
 144 000e 0433     		adds	r3, r3, #4
 145 0010 0193     		str	r3, [sp, #4]
  34:fuzzy_set.c   ****         
  35:fuzzy_set.c   ****         fs[s].type = va_arg(vl, enum MF_TYPE);
 146              		.loc 1 35 0
 147 0012 FFDE     		.inst	0xdeff
 148              	.L7:
 149              	.LBE3:
  36:fuzzy_set.c   **** 		fs[s].params[0] = va_arg(vl, double);
  37:fuzzy_set.c   **** 		fs[s].params[1] = va_arg(vl, double);
  38:fuzzy_set.c   ****         
  39:fuzzy_set.c   ****         for (int i = 0; i < 3; i++)
  40:fuzzy_set.c   ****             fs[s].name[i] = 'o';
  41:fuzzy_set.c   **** 
  42:fuzzy_set.c   **** 		if (fs[s].type == TRIANGULAR) {
  43:fuzzy_set.c   **** 			fs[s].params[2] = va_arg(vl, double);
  44:fuzzy_set.c   **** 		}
  45:fuzzy_set.c   **** 		else if (fs[s].type == TRAPEZOIDAL) {
  46:fuzzy_set.c   **** 			fs[s].params[2] = va_arg(vl, double);
  47:fuzzy_set.c   **** 			fs[s].params[3] = va_arg(vl, double);
  48:fuzzy_set.c   **** 		}
  49:fuzzy_set.c   **** 	}
  50:fuzzy_set.c   **** 
  51:fuzzy_set.c   **** 	va_end(vl);
  52:fuzzy_set.c   **** }
 150              		.loc 1 52 0
 151 0014 03B0     		add	sp, sp, #12
 152              		.cfi_def_cfa_offset 12
 153              		@ sp needed
 154 0016 03B0     		add	sp, sp, #12
 155              		.cfi_restore 3
 156              		.cfi_restore 2
 157              		.cfi_restore 1
 158              		.cfi_def_cfa_offset 0
 159 0018 7047     		bx	lr
 160              		.cfi_endproc
 161              	.LFE2:
 162              		.size	create_fuzzy_sets, .-create_fuzzy_sets
 163 001a 00BF     		.text
 164              	.Letext0:
 165              		.file 2 "c:\\program files (x86)\\cypress\\psoc creator\\4.3\\psoc creator\\import\\gnu\\arm\\5.4.
 166              		.file 3 "fuzzy_set.h"
 167              		.file 4 "<built-in>"
 168              		.file 5 "defines.h"
 169              		.file 6 "c:\\program files (x86)\\cypress\\psoc creator\\4.3\\psoc creator\\import\\gnu\\arm\\5.4.