ARM GAS  C:\Users\diego\AppData\Local\Temp\cc4RROBg.s 			page 1


   1              		.syntax unified
   2              		.cpu cortex-m3
   3              		.fpu softvfp
   4              		.eabi_attribute 20, 1
   5              		.eabi_attribute 21, 1
   6              		.eabi_attribute 23, 3
   7              		.eabi_attribute 24, 1
   8              		.eabi_attribute 25, 1
   9              		.eabi_attribute 26, 1
  10              		.eabi_attribute 30, 1
  11              		.eabi_attribute 34, 1
  12              		.eabi_attribute 18, 4
  13              		.thumb
  14              		.syntax unified
  15              		.file	"isr.c"
  16              		.text
  17              	.Ltext0:
  18              		.cfi_sections	.debug_frame
  19              		.section	.text.timer_motores_isr_handler,"ax",%progbits
  20              		.align	2
  21              		.global	timer_motores_isr_handler
  22              		.thumb
  23              		.thumb_func
  24              		.type	timer_motores_isr_handler, %function
  25              	timer_motores_isr_handler:
  26              	.LFB63:
  27              		.file 1 "isr.c"
   1:isr.c         **** /* ========================================
   2:isr.c         ****  *
   3:isr.c         ****  * Copyright YOUR COMPANY, THE YEAR
   4:isr.c         ****  * All Rights Reserved
   5:isr.c         ****  * UNPUBLISHED, LICENSED SOFTWARE.
   6:isr.c         ****  *
   7:isr.c         ****  * CONFIDENTIAL AND PROPRIETARY INFORMATION
   8:isr.c         ****  * WHICH IS THE PROPERTY OF your company.
   9:isr.c         ****  *
  10:isr.c         ****  * ========================================
  11:isr.c         **** */
  12:isr.c         **** 
  13:isr.c         **** #include "isr.h"
  14:isr.c         **** #include "controle_cinematico.h"
  15:isr.c         **** 
  16:isr.c         **** #include <math.h>
  17:isr.c         **** 
  18:isr.c         **** CY_ISR(timer_motores_isr_handler) {
  28              		.loc 1 18 0
  29              		.cfi_startproc
  30              		@ args = 0, pretend = 0, frame = 0
  31              		@ frame_needed = 0, uses_anonymous_args = 0
  32 0000 08B5     		push	{r3, lr}
  33              		.cfi_def_cfa_offset 8
  34              		.cfi_offset 3, -8
  35              		.cfi_offset 14, -4
  19:isr.c         ****     TimerMotores_ReadStatusRegister();
  36              		.loc 1 19 0
  37 0002 FFF7FEFF 		bl	TimerMotores_ReadStatusRegister
  38              	.LVL0:
ARM GAS  C:\Users\diego\AppData\Local\Temp\cc4RROBg.s 			page 2


  20:isr.c         ****     
  21:isr.c         ****     controle_motores_isr();
  39              		.loc 1 21 0
  40 0006 FFF7FEFF 		bl	controle_motores_isr
  41              	.LVL1:
  42 000a 08BD     		pop	{r3, pc}
  43              		.cfi_endproc
  44              	.LFE63:
  45              		.size	timer_motores_isr_handler, .-timer_motores_isr_handler
  46              		.global	__aeabi_f2d
  47              		.global	__aeabi_dadd
  48              		.global	__aeabi_d2f
  49              		.global	__aeabi_fmul
  50              		.global	__aeabi_fadd
  51              		.section	.text.timer_cinematico_isr_handler,"ax",%progbits
  52              		.align	2
  53              		.global	timer_cinematico_isr_handler
  54              		.thumb
  55              		.thumb_func
  56              		.type	timer_cinematico_isr_handler, %function
  57              	timer_cinematico_isr_handler:
  58              	.LFB64:
  22:isr.c         **** }
  23:isr.c         **** 
  24:isr.c         **** CY_ISR(timer_cinematico_isr_handler) {
  59              		.loc 1 24 0
  60              		.cfi_startproc
  61              		@ args = 0, pretend = 0, frame = 0
  62              		@ frame_needed = 0, uses_anonymous_args = 0
  63 0000 38B5     		push	{r3, r4, r5, lr}
  64              		.cfi_def_cfa_offset 16
  65              		.cfi_offset 3, -16
  66              		.cfi_offset 4, -12
  67              		.cfi_offset 5, -8
  68              		.cfi_offset 14, -4
  25:isr.c         ****     TimerCinematico_ReadStatusRegister();
  69              		.loc 1 25 0
  70 0002 FFF7FEFF 		bl	TimerCinematico_ReadStatusRegister
  71              	.LVL2:
  26:isr.c         ****     
  27:isr.c         ****     _t += 0.07;
  72              		.loc 1 27 0
  73 0006 144C     		ldr	r4, .L5+8
  74 0008 2068     		ldr	r0, [r4]	@ float
  75 000a FFF7FEFF 		bl	__aeabi_f2d
  76              	.LVL3:
  77 000e 10A3     		adr	r3, .L5
  78 0010 D3E90023 		ldrd	r2, [r3]
  79 0014 FFF7FEFF 		bl	__aeabi_dadd
  80              	.LVL4:
  81 0018 FFF7FEFF 		bl	__aeabi_d2f
  82              	.LVL5:
  83 001c 2060     		str	r0, [r4]	@ float
  28:isr.c         ****     
  29:isr.c         ****     controle_cinematico_isr();
  84              		.loc 1 29 0
  85 001e FFF7FEFF 		bl	controle_cinematico_isr
ARM GAS  C:\Users\diego\AppData\Local\Temp\cc4RROBg.s 			page 3


  86              	.LVL6:
  30:isr.c         ****     //cinematico.robo.x += 1;
  31:isr.c         ****     
  32:isr.c         ****     if (!POSICAO) {
  33:isr.c         ****         sx = sox + _t * cinematico.setPoint[0];
  87              		.loc 1 33 0
  88 0022 0E4D     		ldr	r5, .L5+12
  89 0024 2468     		ldr	r4, [r4]	@ float
  90 0026 2146     		mov	r1, r4
  91 0028 2868     		ldr	r0, [r5]	@ float
  92 002a FFF7FEFF 		bl	__aeabi_fmul
  93              	.LVL7:
  94 002e 0C4B     		ldr	r3, .L5+16
  95 0030 1968     		ldr	r1, [r3]	@ float
  96 0032 FFF7FEFF 		bl	__aeabi_fadd
  97              	.LVL8:
  98 0036 0B4B     		ldr	r3, .L5+20
  99 0038 1860     		str	r0, [r3]	@ float
  34:isr.c         ****         sy = soy + _t * cinematico.setPoint[1];
 100              		.loc 1 34 0
 101 003a 6968     		ldr	r1, [r5, #4]	@ float
 102 003c 2046     		mov	r0, r4
 103 003e FFF7FEFF 		bl	__aeabi_fmul
 104              	.LVL9:
 105 0042 094B     		ldr	r3, .L5+24
 106 0044 1968     		ldr	r1, [r3]	@ float
 107 0046 FFF7FEFF 		bl	__aeabi_fadd
 108              	.LVL10:
 109 004a 084B     		ldr	r3, .L5+28
 110 004c 1860     		str	r0, [r3]	@ float
 111 004e 38BD     		pop	{r3, r4, r5, pc}
 112              	.L6:
 113              		.align	3
 114              	.L5:
 115 0050 EC51B81E 		.word	515396076
 116 0054 85EBB13F 		.word	1068624773
 117 0058 00000000 		.word	_t
 118 005c 00000000 		.word	cinematico
 119 0060 00000000 		.word	sox
 120 0064 00000000 		.word	sx
 121 0068 00000000 		.word	soy
 122 006c 00000000 		.word	sy
 123              		.cfi_endproc
 124              	.LFE64:
 125              		.size	timer_cinematico_isr_handler, .-timer_cinematico_isr_handler
 126              		.text
 127              	.Letext0:
 128              		.file 2 "c:\\program files (x86)\\cypress\\psoc creator\\4.3\\psoc creator\\import\\gnu\\arm\\5.4.
 129              		.file 3 "c:\\program files (x86)\\cypress\\psoc creator\\4.3\\psoc creator\\import\\gnu\\arm\\5.4.
 130              		.file 4 "Generated_Source\\PSoC5/cytypes.h"
 131              		.file 5 "motor.h"
 132              		.file 6 "controle_cinematico.h"
 133              		.file 7 "Generated_Source\\PSoC5/core_cm3.h"
 134              		.file 8 "Generated_Source\\PSoC5/TimerMotores.h"
 135              		.file 9 "Generated_Source\\PSoC5/TimerCinematico.h"