ARM GAS  C:\Users\diego\AppData\Local\Temp\ccglNGZX.s 			page 1


   1              		.syntax unified
   2              		.cpu cortex-m3
   3              		.fpu softvfp
   4              		.eabi_attribute 20, 1
   5              		.eabi_attribute 21, 1
   6              		.eabi_attribute 23, 3
   7              		.eabi_attribute 24, 1
   8              		.eabi_attribute 25, 1
   9              		.eabi_attribute 26, 1
  10              		.eabi_attribute 30, 1
  11              		.eabi_attribute 34, 1
  12              		.eabi_attribute 18, 4
  13              		.thumb
  14              		.syntax unified
  15              		.file	"linguistic_variable.c"
  16              		.text
  17              	.Ltext0:
  18              		.cfi_sections	.debug_frame
  19              		.section	.text.create_linguistic_variable,"ax",%progbits
  20              		.align	2
  21              		.global	create_linguistic_variable
  22              		.thumb
  23              		.thumb_func
  24              		.type	create_linguistic_variable, %function
  25              	create_linguistic_variable:
  26              	.LFB0:
  27              		.file 1 "linguistic_variable.c"
   1:linguistic_variable.c **** #include <stdarg.h>
   2:linguistic_variable.c **** #include <string.h>
   3:linguistic_variable.c **** 
   4:linguistic_variable.c **** #include "linguistic_variable.h"
   5:linguistic_variable.c **** 
   6:linguistic_variable.c **** void create_linguistic_variable(linguistic_variable *lvar, const char name[MAXSTR], float min_range
  28              		.loc 1 6 0
  29              		.cfi_startproc
  30              		@ args = 8, pretend = 0, frame = 0
  31              		@ frame_needed = 0, uses_anonymous_args = 0
  32              	.LVL0:
  33 0000 70B5     		push	{r4, r5, r6, lr}
  34              		.cfi_def_cfa_offset 16
  35              		.cfi_offset 4, -16
  36              		.cfi_offset 5, -12
  37              		.cfi_offset 6, -8
  38              		.cfi_offset 14, -4
  39 0002 0446     		mov	r4, r0
  40 0004 1646     		mov	r6, r2
  41 0006 1D46     		mov	r5, r3
   7:linguistic_variable.c **** 	//strcpy_s(lvar->name, strlen(name) + 1, name);
   8:linguistic_variable.c ****     strcpy(lvar->name, name);
  42              		.loc 1 8 0
  43 0008 FFF7FEFF 		bl	strcpy
  44              	.LVL1:
   9:linguistic_variable.c **** 
  10:linguistic_variable.c **** 	lvar->range[0] = min_range;
  45              		.loc 1 10 0
  46 000c E660     		str	r6, [r4, #12]	@ float
  11:linguistic_variable.c **** 	lvar->range[1] = max_range;
ARM GAS  C:\Users\diego\AppData\Local\Temp\ccglNGZX.s 			page 2


  47              		.loc 1 11 0
  48 000e 2561     		str	r5, [r4, #16]	@ float
  12:linguistic_variable.c **** 
  13:linguistic_variable.c **** 	lvar->n = n;
  49              		.loc 1 13 0
  50 0010 9DF81030 		ldrb	r3, [sp, #16]	@ zero_extendqisi2
  51 0014 2376     		strb	r3, [r4, #24]
  14:linguistic_variable.c **** 	lvar->fuzzy_sets = mfs;
  52              		.loc 1 14 0
  53 0016 059B     		ldr	r3, [sp, #20]
  54 0018 6361     		str	r3, [r4, #20]
  55 001a 70BD     		pop	{r4, r5, r6, pc}
  56              		.cfi_endproc
  57              	.LFE0:
  58              		.size	create_linguistic_variable, .-create_linguistic_variable
  59              		.section	.text.create_linguistic_variables,"ax",%progbits
  60              		.align	2
  61              		.global	create_linguistic_variables
  62              		.thumb
  63              		.thumb_func
  64              		.type	create_linguistic_variables, %function
  65              	create_linguistic_variables:
  66              	.LFB1:
  15:linguistic_variable.c **** }
  16:linguistic_variable.c **** 
  17:linguistic_variable.c **** void create_linguistic_variables(linguistic_variable *lvar, unsigned char n_vals, ...) {
  67              		.loc 1 17 0
  68              		.cfi_startproc
  69              		@ args = 4, pretend = 12, frame = 8
  70              		@ frame_needed = 0, uses_anonymous_args = 1
  71              		@ link register save eliminated.
  72              	.LVL2:
  73 0000 0EB4     		push	{r1, r2, r3}
  74              		.cfi_def_cfa_offset 12
  75              		.cfi_offset 1, -12
  76              		.cfi_offset 2, -8
  77              		.cfi_offset 3, -4
  78 0002 83B0     		sub	sp, sp, #12
  79              		.cfi_def_cfa_offset 24
  80 0004 03AB     		add	r3, sp, #12
  81 0006 13F8042B 		ldrb	r2, [r3], #4	@ zero_extendqisi2
  18:linguistic_variable.c **** 	va_list vl;
  19:linguistic_variable.c **** 
  20:linguistic_variable.c **** 	va_start(vl, n_vals);
  82              		.loc 1 20 0
  83 000a 0193     		str	r3, [sp, #4]
  84              	.LVL3:
  85              	.LBB2:
  21:linguistic_variable.c **** 
  22:linguistic_variable.c **** 	for (int v = 0; v < n_vals; v++)
  86              		.loc 1 22 0
  87 000c 2AB1     		cbz	r2, .L3
  23:linguistic_variable.c **** 		create_linguistic_variable(
  24:linguistic_variable.c **** 			&lvar[v],
  25:linguistic_variable.c **** 			va_arg(vl, char *),
  26:linguistic_variable.c **** 			va_arg(vl, double),
  88              		.loc 1 26 0
ARM GAS  C:\Users\diego\AppData\Local\Temp\ccglNGZX.s 			page 3


  89 000e 0B33     		adds	r3, r3, #11
  90 0010 23F00703 		bic	r3, r3, #7
  27:linguistic_variable.c **** 			va_arg(vl, double),
  91              		.loc 1 27 0
  92 0014 1033     		adds	r3, r3, #16
  93 0016 0193     		str	r3, [sp, #4]
  23:linguistic_variable.c **** 		create_linguistic_variable(
  94              		.loc 1 23 0
  95 0018 FFDE     		.inst	0xdeff
  96              	.L3:
  97              	.LBE2:
  28:linguistic_variable.c **** 			va_arg(vl, unsigned char),
  29:linguistic_variable.c **** 			va_arg(vl, fuzzy_set *));
  30:linguistic_variable.c **** 
  31:linguistic_variable.c **** 	va_end(vl);
  32:linguistic_variable.c **** }...
  98              		.loc 1 32 0
  99 001a 03B0     		add	sp, sp, #12
 100              		.cfi_def_cfa_offset 12
 101              		@ sp needed
 102 001c 03B0     		add	sp, sp, #12
 103              		.cfi_restore 3
 104              		.cfi_restore 2
 105              		.cfi_restore 1
 106              		.cfi_def_cfa_offset 0
 107 001e 7047     		bx	lr
 108              		.cfi_endproc
 109              	.LFE1:
 110              		.size	create_linguistic_variables, .-create_linguistic_variables
 111              		.text
 112              	.Letext0:
 113              		.file 2 "c:\\program files (x86)\\cypress\\psoc creator\\4.3\\psoc creator\\import\\gnu\\arm\\5.4.
 114              		.file 3 "fuzzy_set.h"
 115              		.file 4 "linguistic_variable.h"
 116              		.file 5 "<built-in>"
 117              		.file 6 "defines.h"
 118              		.file 7 "c:\\program files (x86)\\cypress\\psoc creator\\4.3\\psoc creator\\import\\gnu\\arm\\5.4.