ARM GAS  C:\Users\diego\AppData\Local\Temp\cc2NdClb.s 			page 1


   1              		.syntax unified
   2              		.cpu cortex-m3
   3              		.fpu softvfp
   4              		.eabi_attribute 20, 1
   5              		.eabi_attribute 21, 1
   6              		.eabi_attribute 23, 3
   7              		.eabi_attribute 24, 1
   8              		.eabi_attribute 25, 1
   9              		.eabi_attribute 26, 1
  10              		.eabi_attribute 30, 1
  11              		.eabi_attribute 34, 1
  12              		.eabi_attribute 18, 4
  13              		.thumb
  14              		.syntax unified
  15              		.file	"membership_functions.c"
  16              		.text
  17              	.Ltext0:
  18              		.cfi_sections	.debug_frame
  19              		.global	__aeabi_fsub
  20              		.global	__aeabi_fdiv
  21              		.global	__aeabi_fcmplt
  22              		.global	__aeabi_fcmpgt
  23              		.section	.text.trapmf,"ax",%progbits
  24              		.align	2
  25              		.global	trapmf
  26              		.thumb
  27              		.thumb_func
  28              		.type	trapmf, %function
  29              	trapmf:
  30              	.LFB0:
  31              		.file 1 "membership_functions.c"
   1:membership_functions.c **** #include <stdlib.h>
   2:membership_functions.c **** 
   3:membership_functions.c **** #include "membership_functions.h"
   4:membership_functions.c **** #include "defines.h"
   5:membership_functions.c **** 
   6:membership_functions.c **** float trapmf(float x, float a, float b, float c, float d) {
  32              		.loc 1 6 0
  33              		.cfi_startproc
  34              		@ args = 4, pretend = 0, frame = 0
  35              		@ frame_needed = 0, uses_anonymous_args = 0
  36              	.LVL0:
  37 0000 2DE9F041 		push	{r4, r5, r6, r7, r8, lr}
  38              		.cfi_def_cfa_offset 24
  39              		.cfi_offset 4, -24
  40              		.cfi_offset 5, -20
  41              		.cfi_offset 6, -16
  42              		.cfi_offset 7, -12
  43              		.cfi_offset 8, -8
  44              		.cfi_offset 14, -4
  45 0004 0446     		mov	r4, r0
  46 0006 8846     		mov	r8, r1
  47 0008 1646     		mov	r6, r2
  48 000a 1F46     		mov	r7, r3
   7:membership_functions.c ****     float mu = max(min(min((x - a) / (b - a), 1), (d - x) / (d - c)), 0);
  49              		.loc 1 7 0
  50 000c FFF7FEFF 		bl	__aeabi_fsub
ARM GAS  C:\Users\diego\AppData\Local\Temp\cc2NdClb.s 			page 2


  51              	.LVL1:
  52 0010 0546     		mov	r5, r0
  53 0012 4146     		mov	r1, r8
  54 0014 3046     		mov	r0, r6
  55 0016 FFF7FEFF 		bl	__aeabi_fsub
  56              	.LVL2:
  57 001a 0146     		mov	r1, r0
  58 001c 2846     		mov	r0, r5
  59 001e FFF7FEFF 		bl	__aeabi_fdiv
  60              	.LVL3:
  61 0022 0646     		mov	r6, r0
  62              	.LVL4:
  63 0024 4FF07E51 		mov	r1, #1065353216
  64 0028 FFF7FEFF 		bl	__aeabi_fcmplt
  65              	.LVL5:
  66 002c 10B9     		cbnz	r0, .L12
  67 002e 4FF07E55 		mov	r5, #1065353216
  68 0032 00E0     		b	.L2
  69              	.L12:
  70 0034 3546     		mov	r5, r6
  71              	.L2:
  72              		.loc 1 7 0 is_stmt 0 discriminator 4
  73 0036 2146     		mov	r1, r4
  74 0038 0698     		ldr	r0, [sp, #24]	@ float
  75 003a FFF7FEFF 		bl	__aeabi_fsub
  76              	.LVL6:
  77 003e 0446     		mov	r4, r0
  78              	.LVL7:
  79 0040 3946     		mov	r1, r7
  80 0042 0698     		ldr	r0, [sp, #24]	@ float
  81 0044 FFF7FEFF 		bl	__aeabi_fsub
  82              	.LVL8:
  83 0048 0146     		mov	r1, r0
  84 004a 2046     		mov	r0, r4
  85 004c FFF7FEFF 		bl	__aeabi_fdiv
  86              	.LVL9:
  87 0050 0446     		mov	r4, r0
  88 0052 0146     		mov	r1, r0
  89 0054 2846     		mov	r0, r5
  90 0056 FFF7FEFF 		bl	__aeabi_fcmplt
  91              	.LVL10:
  92 005a 80B1     		cbz	r0, .L20
  93              		.loc 1 7 0 discriminator 5
  94 005c 4FF07E51 		mov	r1, #1065353216
  95 0060 3046     		mov	r0, r6
  96 0062 FFF7FEFF 		bl	__aeabi_fcmplt
  97              	.LVL11:
  98 0066 A8B1     		cbz	r0, .L21
  99              		.loc 1 7 0 discriminator 7
 100 0068 4FF00105 		mov	r5, #1
 101 006c 0021     		movs	r1, #0
 102 006e 3046     		mov	r0, r6
 103 0070 FFF7FEFF 		bl	__aeabi_fcmpgt
 104              	.LVL12:
 105 0074 08B9     		cbnz	r0, .L7
 106 0076 4FF00005 		mov	r5, #0
 107              	.L7:
ARM GAS  C:\Users\diego\AppData\Local\Temp\cc2NdClb.s 			page 3


 108 007a EBB2     		uxtb	r3, r5
 109 007c 0BE0     		b	.L5
 110              	.L20:
 111              		.loc 1 7 0 discriminator 6
 112 007e 4FF00105 		mov	r5, #1
 113 0082 0021     		movs	r1, #0
 114 0084 2046     		mov	r0, r4
 115 0086 FFF7FEFF 		bl	__aeabi_fcmpgt
 116              	.LVL13:
 117 008a 08B9     		cbnz	r0, .L8
 118 008c 4FF00005 		mov	r5, #0
 119              	.L8:
 120 0090 EBB2     		uxtb	r3, r5
 121 0092 00E0     		b	.L5
 122              	.L21:
 123              		.loc 1 7 0
 124 0094 0123     		movs	r3, #1
 125              	.L5:
 126              		.loc 1 7 0 discriminator 12
 127 0096 B3B1     		cbz	r3, .L14
 128              		.loc 1 7 0 discriminator 13
 129 0098 4FF07E51 		mov	r1, #1065353216
 130 009c 3046     		mov	r0, r6
 131 009e FFF7FEFF 		bl	__aeabi_fcmplt
 132              	.LVL14:
 133 00a2 10B9     		cbnz	r0, .L15
 134              		.loc 1 7 0
 135 00a4 4FF07E50 		mov	r0, #1065353216
 136 00a8 00E0     		b	.L10
 137              	.L15:
 138 00aa 3046     		mov	r0, r6
 139              	.L10:
 140              		.loc 1 7 0 discriminator 18
 141 00ac 2146     		mov	r1, r4
 142 00ae FFF7FEFF 		bl	__aeabi_fcmplt
 143              	.LVL15:
 144 00b2 58B1     		cbz	r0, .L9
 145              		.loc 1 7 0 discriminator 19
 146 00b4 4FF07E51 		mov	r1, #1065353216
 147 00b8 3046     		mov	r0, r6
 148 00ba FFF7FEFF 		bl	__aeabi_fcmplt
 149              	.LVL16:
 150 00be 20B9     		cbnz	r0, .L16
 151              		.loc 1 7 0
 152 00c0 4FF07E54 		mov	r4, #1065353216
 153 00c4 02E0     		b	.L9
 154              	.L14:
 155 00c6 0024     		movs	r4, #0
 156 00c8 00E0     		b	.L9
 157              	.L16:
 158 00ca 3446     		mov	r4, r6
 159              	.L9:
 160              	.LVL17:
   8:membership_functions.c ****     /*float mu;
   9:membership_functions.c ****     if (x > a && x < b)
  10:membership_functions.c ****         mu = (x - a) / (b - a);
  11:membership_functions.c ****     else if (x >= b && x <= c)
ARM GAS  C:\Users\diego\AppData\Local\Temp\cc2NdClb.s 			page 4


  12:membership_functions.c ****         mu = 1.0f;
  13:membership_functions.c ****     else if (x > c && x < d)
  14:membership_functions.c ****         mu = (d - x) / (d - c);
  15:membership_functions.c ****     else
  16:membership_functions.c ****         mu = 0.0f;*/
  17:membership_functions.c ****         
  18:membership_functions.c **** 	return mu;
  19:membership_functions.c **** }
 161              		.loc 1 19 0 is_stmt 1 discriminator 28
 162 00cc 2046     		mov	r0, r4
 163 00ce BDE8F081 		pop	{r4, r5, r6, r7, r8, pc}
 164              		.cfi_endproc
 165              	.LFE0:
 166              		.size	trapmf, .-trapmf
 167              		.global	__aeabi_fadd
 168              		.global	__aeabi_fmul
 169 00d2 00BF     		.section	.text.trapmf_area,"ax",%progbits
 170              		.align	2
 171              		.global	trapmf_area
 172              		.thumb
 173              		.thumb_func
 174              		.type	trapmf_area, %function
 175              	trapmf_area:
 176              	.LFB1:
  20:membership_functions.c **** 
  21:membership_functions.c **** float trapmf_area(float y, float a, float b, float c, float d, enum T_NORM implication) {
 177              		.loc 1 21 0
 178              		.cfi_startproc
 179              		@ args = 8, pretend = 0, frame = 0
 180              		@ frame_needed = 0, uses_anonymous_args = 0
 181              	.LVL18:
 182 0000 2DE9F041 		push	{r4, r5, r6, r7, r8, lr}
 183              		.cfi_def_cfa_offset 24
 184              		.cfi_offset 4, -24
 185              		.cfi_offset 5, -20
 186              		.cfi_offset 6, -16
 187              		.cfi_offset 7, -12
 188              		.cfi_offset 8, -8
 189              		.cfi_offset 14, -4
 190 0004 0446     		mov	r4, r0
 191 0006 0D46     		mov	r5, r1
 192 0008 1746     		mov	r7, r2
 193 000a 1E46     		mov	r6, r3
  22:membership_functions.c **** 	if (implication == PROD)
 194              		.loc 1 22 0
 195 000c 9DF81C30 		ldrb	r3, [sp, #28]	@ zero_extendqisi2
 196              	.LVL19:
 197 0010 012B     		cmp	r3, #1
 198 0012 14D1     		bne	.L24
  23:membership_functions.c **** 		return ((d - a) + (c - b)) * y / 2.0f;
 199              		.loc 1 23 0
 200 0014 0698     		ldr	r0, [sp, #24]	@ float
 201              	.LVL20:
 202 0016 FFF7FEFF 		bl	__aeabi_fsub
 203              	.LVL21:
 204 001a 0546     		mov	r5, r0
 205              	.LVL22:
ARM GAS  C:\Users\diego\AppData\Local\Temp\cc2NdClb.s 			page 5


 206 001c 3946     		mov	r1, r7
 207 001e 3046     		mov	r0, r6
 208 0020 FFF7FEFF 		bl	__aeabi_fsub
 209              	.LVL23:
 210 0024 0146     		mov	r1, r0
 211 0026 2846     		mov	r0, r5
 212 0028 FFF7FEFF 		bl	__aeabi_fadd
 213              	.LVL24:
 214 002c 2146     		mov	r1, r4
 215 002e FFF7FEFF 		bl	__aeabi_fmul
 216              	.LVL25:
 217 0032 4FF07C51 		mov	r1, #1056964608
 218 0036 FFF7FEFF 		bl	__aeabi_fmul
 219              	.LVL26:
 220 003a BDE8F081 		pop	{r4, r5, r6, r7, r8, pc}
 221              	.LVL27:
 222              	.L24:
 223              	.LBB2:
  24:membership_functions.c **** 	else { // MIN
  25:membership_functions.c **** 		float x_min = y * (b - a) + a,
 224              		.loc 1 25 0
 225 003e 1046     		mov	r0, r2
 226              	.LVL28:
 227 0040 FFF7FEFF 		bl	__aeabi_fsub
 228              	.LVL29:
 229 0044 0146     		mov	r1, r0
 230 0046 2046     		mov	r0, r4
 231 0048 FFF7FEFF 		bl	__aeabi_fmul
 232              	.LVL30:
 233 004c 0146     		mov	r1, r0
 234 004e 2846     		mov	r0, r5
 235 0050 FFF7FEFF 		bl	__aeabi_fadd
 236              	.LVL31:
 237 0054 0746     		mov	r7, r0
 238              	.LVL32:
  26:membership_functions.c **** 			x_max = -y * (d - c) + d;
 239              		.loc 1 26 0
 240 0056 04F10048 		add	r8, r4, #-2147483648
 241 005a 3146     		mov	r1, r6
 242 005c 0698     		ldr	r0, [sp, #24]	@ float
 243              	.LVL33:
 244 005e FFF7FEFF 		bl	__aeabi_fsub
 245              	.LVL34:
 246 0062 0146     		mov	r1, r0
 247 0064 4046     		mov	r0, r8
 248 0066 FFF7FEFF 		bl	__aeabi_fmul
 249              	.LVL35:
 250 006a 0146     		mov	r1, r0
 251 006c 0698     		ldr	r0, [sp, #24]	@ float
 252 006e FFF7FEFF 		bl	__aeabi_fadd
 253              	.LVL36:
 254 0072 0646     		mov	r6, r0
 255              	.LVL37:
  27:membership_functions.c **** 
  28:membership_functions.c **** 		return ((d - a) + (x_max - x_min)) * y / 2.0f;
 256              		.loc 1 28 0
 257 0074 2946     		mov	r1, r5
ARM GAS  C:\Users\diego\AppData\Local\Temp\cc2NdClb.s 			page 6


 258 0076 0698     		ldr	r0, [sp, #24]	@ float
 259              	.LVL38:
 260 0078 FFF7FEFF 		bl	__aeabi_fsub
 261              	.LVL39:
 262 007c 0546     		mov	r5, r0
 263              	.LVL40:
 264 007e 3946     		mov	r1, r7
 265 0080 3046     		mov	r0, r6
 266 0082 FFF7FEFF 		bl	__aeabi_fsub
 267              	.LVL41:
 268 0086 0146     		mov	r1, r0
 269 0088 2846     		mov	r0, r5
 270 008a FFF7FEFF 		bl	__aeabi_fadd
 271              	.LVL42:
 272 008e 0146     		mov	r1, r0
 273 0090 2046     		mov	r0, r4
 274 0092 FFF7FEFF 		bl	__aeabi_fmul
 275              	.LVL43:
 276 0096 4FF07C51 		mov	r1, #1056964608
 277 009a FFF7FEFF 		bl	__aeabi_fmul
 278              	.LVL44:
 279              	.LBE2:
  29:membership_functions.c **** 	}
  30:membership_functions.c **** }
 280              		.loc 1 30 0
 281 009e BDE8F081 		pop	{r4, r5, r6, r7, r8, pc}
 282              		.cfi_endproc
 283              	.LFE1:
 284              		.size	trapmf_area, .-trapmf_area
 285 00a2 00BF     		.section	.text.trapmf_cogx,"ax",%progbits
 286              		.align	2
 287              		.global	trapmf_cogx
 288              		.thumb
 289              		.thumb_func
 290              		.type	trapmf_cogx, %function
 291              	trapmf_cogx:
 292              	.LFB2:
  31:membership_functions.c **** 
  32:membership_functions.c **** float trapmf_cogx(float y, float a, float b, float c, float d, enum T_NORM implication) {
 293              		.loc 1 32 0
 294              		.cfi_startproc
 295              		@ args = 8, pretend = 0, frame = 0
 296              		@ frame_needed = 0, uses_anonymous_args = 0
 297              	.LVL45:
 298 0000 2DE9F041 		push	{r4, r5, r6, r7, r8, lr}
 299              		.cfi_def_cfa_offset 24
 300              		.cfi_offset 4, -24
 301              		.cfi_offset 5, -20
 302              		.cfi_offset 6, -16
 303              		.cfi_offset 7, -12
 304              		.cfi_offset 8, -8
 305              		.cfi_offset 14, -4
 306 0004 0E46     		mov	r6, r1
 307 0006 1746     		mov	r7, r2
 308 0008 1D46     		mov	r5, r3
  33:membership_functions.c **** 	float _a, _b, _c;
  34:membership_functions.c **** 
ARM GAS  C:\Users\diego\AppData\Local\Temp\cc2NdClb.s 			page 7


  35:membership_functions.c **** 	if (implication == PROD) {
 309              		.loc 1 35 0
 310 000a 9DF81C30 		ldrb	r3, [sp, #28]	@ zero_extendqisi2
 311              	.LVL46:
 312 000e 012B     		cmp	r3, #1
 313 0010 0FD1     		bne	.L28
  36:membership_functions.c **** 		_a = c - b,
 314              		.loc 1 36 0
 315 0012 1146     		mov	r1, r2
 316              	.LVL47:
 317 0014 2846     		mov	r0, r5
 318              	.LVL48:
 319 0016 FFF7FEFF 		bl	__aeabi_fsub
 320              	.LVL49:
 321 001a 0446     		mov	r4, r0
 322              	.LVL50:
  37:membership_functions.c **** 			_b = d - a,
 323              		.loc 1 37 0
 324 001c 3146     		mov	r1, r6
 325 001e 0698     		ldr	r0, [sp, #24]	@ float
 326              	.LVL51:
 327 0020 FFF7FEFF 		bl	__aeabi_fsub
 328              	.LVL52:
 329 0024 0546     		mov	r5, r0
 330              	.LVL53:
  38:membership_functions.c **** 			_c = b - a;
 331              		.loc 1 38 0
 332 0026 3146     		mov	r1, r6
 333 0028 3846     		mov	r0, r7
 334              	.LVL54:
 335 002a FFF7FEFF 		bl	__aeabi_fsub
 336              	.LVL55:
 337 002e 8046     		mov	r8, r0
 338              	.LVL56:
 339 0030 27E0     		b	.L29
 340              	.LVL57:
 341              	.L28:
 342 0032 0446     		mov	r4, r0
 343              	.LBB3:
  39:membership_functions.c **** 	}
  40:membership_functions.c **** 	else {
  41:membership_functions.c **** 		float x_min = y * (b - a) + a,
 344              		.loc 1 41 0
 345 0034 1046     		mov	r0, r2
 346              	.LVL58:
 347 0036 FFF7FEFF 		bl	__aeabi_fsub
 348              	.LVL59:
 349 003a 2146     		mov	r1, r4
 350 003c FFF7FEFF 		bl	__aeabi_fmul
 351              	.LVL60:
 352 0040 0146     		mov	r1, r0
 353 0042 3046     		mov	r0, r6
 354 0044 FFF7FEFF 		bl	__aeabi_fadd
 355              	.LVL61:
 356 0048 0746     		mov	r7, r0
 357              	.LVL62:
  42:membership_functions.c **** 			x_max = -y * (d - c) + d;
ARM GAS  C:\Users\diego\AppData\Local\Temp\cc2NdClb.s 			page 8


 358              		.loc 1 42 0
 359 004a 04F10044 		add	r4, r4, #-2147483648
 360              	.LVL63:
 361 004e 2946     		mov	r1, r5
 362 0050 0698     		ldr	r0, [sp, #24]	@ float
 363              	.LVL64:
 364 0052 FFF7FEFF 		bl	__aeabi_fsub
 365              	.LVL65:
 366 0056 0146     		mov	r1, r0
 367 0058 2046     		mov	r0, r4
 368 005a FFF7FEFF 		bl	__aeabi_fmul
 369              	.LVL66:
 370 005e 0146     		mov	r1, r0
 371 0060 0698     		ldr	r0, [sp, #24]	@ float
 372 0062 FFF7FEFF 		bl	__aeabi_fadd
 373              	.LVL67:
  43:membership_functions.c **** 
  44:membership_functions.c **** 		_a = x_max - x_min,
 374              		.loc 1 44 0
 375 0066 3946     		mov	r1, r7
 376 0068 FFF7FEFF 		bl	__aeabi_fsub
 377              	.LVL68:
 378 006c 0446     		mov	r4, r0
 379              	.LVL69:
  45:membership_functions.c **** 			_b = d - a,
 380              		.loc 1 45 0
 381 006e 3146     		mov	r1, r6
 382 0070 0698     		ldr	r0, [sp, #24]	@ float
 383              	.LVL70:
 384 0072 FFF7FEFF 		bl	__aeabi_fsub
 385              	.LVL71:
 386 0076 0546     		mov	r5, r0
 387              	.LVL72:
  46:membership_functions.c **** 			_c = x_min - a;
 388              		.loc 1 46 0
 389 0078 3146     		mov	r1, r6
 390 007a 3846     		mov	r0, r7
 391              	.LVL73:
 392 007c FFF7FEFF 		bl	__aeabi_fsub
 393              	.LVL74:
 394 0080 8046     		mov	r8, r0
 395              	.LVL75:
 396              	.L29:
 397              	.LBE3:
  47:membership_functions.c **** 	}
  48:membership_functions.c **** 
  49:membership_functions.c **** 	return a + (2 * _a * _b + _a * _a + _c * _b + _b * _b) / (3 * (_a + _b));
 398              		.loc 1 49 0
 399 0082 2146     		mov	r1, r4
 400 0084 2046     		mov	r0, r4
 401              	.LVL76:
 402 0086 FFF7FEFF 		bl	__aeabi_fadd
 403              	.LVL77:
 404 008a 0146     		mov	r1, r0
 405 008c 2846     		mov	r0, r5
 406 008e FFF7FEFF 		bl	__aeabi_fmul
 407              	.LVL78:
ARM GAS  C:\Users\diego\AppData\Local\Temp\cc2NdClb.s 			page 9


 408 0092 0746     		mov	r7, r0
 409 0094 2146     		mov	r1, r4
 410 0096 2046     		mov	r0, r4
 411 0098 FFF7FEFF 		bl	__aeabi_fmul
 412              	.LVL79:
 413 009c 0146     		mov	r1, r0
 414 009e 3846     		mov	r0, r7
 415 00a0 FFF7FEFF 		bl	__aeabi_fadd
 416              	.LVL80:
 417 00a4 0746     		mov	r7, r0
 418 00a6 4146     		mov	r1, r8
 419 00a8 2846     		mov	r0, r5
 420 00aa FFF7FEFF 		bl	__aeabi_fmul
 421              	.LVL81:
 422 00ae 0146     		mov	r1, r0
 423 00b0 3846     		mov	r0, r7
 424 00b2 FFF7FEFF 		bl	__aeabi_fadd
 425              	.LVL82:
 426 00b6 0746     		mov	r7, r0
 427 00b8 2946     		mov	r1, r5
 428 00ba 2846     		mov	r0, r5
 429 00bc FFF7FEFF 		bl	__aeabi_fmul
 430              	.LVL83:
 431 00c0 0146     		mov	r1, r0
 432 00c2 3846     		mov	r0, r7
 433 00c4 FFF7FEFF 		bl	__aeabi_fadd
 434              	.LVL84:
 435 00c8 0746     		mov	r7, r0
 436 00ca 2946     		mov	r1, r5
 437 00cc 2046     		mov	r0, r4
 438 00ce FFF7FEFF 		bl	__aeabi_fadd
 439              	.LVL85:
 440 00d2 0649     		ldr	r1, .L31
 441 00d4 FFF7FEFF 		bl	__aeabi_fmul
 442              	.LVL86:
 443 00d8 0146     		mov	r1, r0
 444 00da 3846     		mov	r0, r7
 445 00dc FFF7FEFF 		bl	__aeabi_fdiv
 446              	.LVL87:
 447 00e0 0146     		mov	r1, r0
 448 00e2 3046     		mov	r0, r6
 449 00e4 FFF7FEFF 		bl	__aeabi_fadd
 450              	.LVL88:
  50:membership_functions.c **** }
 451              		.loc 1 50 0
 452 00e8 BDE8F081 		pop	{r4, r5, r6, r7, r8, pc}
 453              	.LVL89:
 454              	.L32:
 455              		.align	2
 456              	.L31:
 457 00ec 00004040 		.word	1077936128
 458              		.cfi_endproc
 459              	.LFE2:
 460              		.size	trapmf_cogx, .-trapmf_cogx
 461              		.section	.text.trimf,"ax",%progbits
 462              		.align	2
 463              		.global	trimf
ARM GAS  C:\Users\diego\AppData\Local\Temp\cc2NdClb.s 			page 10


 464              		.thumb
 465              		.thumb_func
 466              		.type	trimf, %function
 467              	trimf:
 468              	.LFB3:
  51:membership_functions.c **** 
  52:membership_functions.c **** float trimf(float x, float a, float b, float c) {
 469              		.loc 1 52 0
 470              		.cfi_startproc
 471              		@ args = 0, pretend = 0, frame = 0
 472              		@ frame_needed = 0, uses_anonymous_args = 0
 473              	.LVL90:
 474 0000 2DE9F041 		push	{r4, r5, r6, r7, r8, lr}
 475              		.cfi_def_cfa_offset 24
 476              		.cfi_offset 4, -24
 477              		.cfi_offset 5, -20
 478              		.cfi_offset 6, -16
 479              		.cfi_offset 7, -12
 480              		.cfi_offset 8, -8
 481              		.cfi_offset 14, -4
 482 0004 0746     		mov	r7, r0
 483 0006 8846     		mov	r8, r1
 484 0008 1546     		mov	r5, r2
 485 000a 1C46     		mov	r4, r3
  53:membership_functions.c **** 	return max(min((x - a) / (b - a), (c - x) / (c - b)), 0);
 486              		.loc 1 53 0
 487 000c FFF7FEFF 		bl	__aeabi_fsub
 488              	.LVL91:
 489 0010 0646     		mov	r6, r0
 490 0012 4146     		mov	r1, r8
 491 0014 2846     		mov	r0, r5
 492 0016 FFF7FEFF 		bl	__aeabi_fsub
 493              	.LVL92:
 494 001a 0146     		mov	r1, r0
 495 001c 3046     		mov	r0, r6
 496 001e FFF7FEFF 		bl	__aeabi_fdiv
 497              	.LVL93:
 498 0022 0646     		mov	r6, r0
 499 0024 3946     		mov	r1, r7
 500 0026 2046     		mov	r0, r4
 501 0028 FFF7FEFF 		bl	__aeabi_fsub
 502              	.LVL94:
 503 002c 0746     		mov	r7, r0
 504              	.LVL95:
 505 002e 2946     		mov	r1, r5
 506 0030 2046     		mov	r0, r4
 507 0032 FFF7FEFF 		bl	__aeabi_fsub
 508              	.LVL96:
 509 0036 0146     		mov	r1, r0
 510 0038 3846     		mov	r0, r7
 511 003a FFF7FEFF 		bl	__aeabi_fdiv
 512              	.LVL97:
 513 003e 0446     		mov	r4, r0
 514              	.LVL98:
 515 0040 0146     		mov	r1, r0
 516 0042 3046     		mov	r0, r6
 517 0044 FFF7FEFF 		bl	__aeabi_fcmplt
ARM GAS  C:\Users\diego\AppData\Local\Temp\cc2NdClb.s 			page 11


 518              	.LVL99:
 519 0048 50B1     		cbz	r0, .L44
 520              		.loc 1 53 0 is_stmt 0 discriminator 1
 521 004a 4FF00105 		mov	r5, #1
 522              	.LVL100:
 523 004e 0021     		movs	r1, #0
 524 0050 3046     		mov	r0, r6
 525 0052 FFF7FEFF 		bl	__aeabi_fcmpgt
 526              	.LVL101:
 527 0056 08B9     		cbnz	r0, .L36
 528 0058 4FF00005 		mov	r5, #0
 529              	.L36:
 530 005c EBB2     		uxtb	r3, r5
 531 005e 09E0     		b	.L37
 532              	.LVL102:
 533              	.L44:
 534              		.loc 1 53 0 discriminator 2
 535 0060 4FF00105 		mov	r5, #1
 536              	.LVL103:
 537 0064 0021     		movs	r1, #0
 538 0066 2046     		mov	r0, r4
 539 0068 FFF7FEFF 		bl	__aeabi_fcmpgt
 540              	.LVL104:
 541 006c 08B9     		cbnz	r0, .L38
 542 006e 4FF00005 		mov	r5, #0
 543              	.L38:
 544 0072 EBB2     		uxtb	r3, r5
 545              	.L37:
 546              		.loc 1 53 0 discriminator 4
 547 0074 33B1     		cbz	r3, .L41
 548              		.loc 1 53 0 discriminator 5
 549 0076 2146     		mov	r1, r4
 550 0078 3046     		mov	r0, r6
 551 007a FFF7FEFF 		bl	__aeabi_fcmplt
 552              	.LVL105:
 553 007e 10B1     		cbz	r0, .L39
 554              		.loc 1 53 0
 555 0080 3446     		mov	r4, r6
 556 0082 00E0     		b	.L39
 557              	.L41:
 558 0084 0024     		movs	r4, #0
 559              	.L39:
  54:membership_functions.c **** }
 560              		.loc 1 54 0 is_stmt 1 discriminator 12
 561 0086 2046     		mov	r0, r4
 562 0088 BDE8F081 		pop	{r4, r5, r6, r7, r8, pc}
 563              		.cfi_endproc
 564              	.LFE3:
 565              		.size	trimf, .-trimf
 566              		.section	.text.trimf_area,"ax",%progbits
 567              		.align	2
 568              		.global	trimf_area
 569              		.thumb
 570              		.thumb_func
 571              		.type	trimf_area, %function
 572              	trimf_area:
 573              	.LFB4:
ARM GAS  C:\Users\diego\AppData\Local\Temp\cc2NdClb.s 			page 12


  55:membership_functions.c **** 
  56:membership_functions.c **** float trimf_area(float y, float a, float b, float c, enum T_NORM implication) {
 574              		.loc 1 56 0
 575              		.cfi_startproc
 576              		@ args = 4, pretend = 0, frame = 0
 577              		@ frame_needed = 0, uses_anonymous_args = 0
 578              	.LVL106:
 579 0000 2DE9F843 		push	{r3, r4, r5, r6, r7, r8, r9, lr}
 580              		.cfi_def_cfa_offset 32
 581              		.cfi_offset 3, -32
 582              		.cfi_offset 4, -28
 583              		.cfi_offset 5, -24
 584              		.cfi_offset 6, -20
 585              		.cfi_offset 7, -16
 586              		.cfi_offset 8, -12
 587              		.cfi_offset 9, -8
 588              		.cfi_offset 14, -4
 589 0004 0446     		mov	r4, r0
 590 0006 0E46     		mov	r6, r1
 591 0008 1D46     		mov	r5, r3
  57:membership_functions.c **** 	if (implication == PROD)
 592              		.loc 1 57 0
 593 000a 9DF82030 		ldrb	r3, [sp, #32]	@ zero_extendqisi2
 594              	.LVL107:
 595 000e 012B     		cmp	r3, #1
 596 0010 0BD1     		bne	.L47
  58:membership_functions.c **** 		return (c - a) * y / 2.0f;
 597              		.loc 1 58 0
 598 0012 2846     		mov	r0, r5
 599              	.LVL108:
 600 0014 FFF7FEFF 		bl	__aeabi_fsub
 601              	.LVL109:
 602 0018 2146     		mov	r1, r4
 603 001a FFF7FEFF 		bl	__aeabi_fmul
 604              	.LVL110:
 605 001e 4FF07C51 		mov	r1, #1056964608
 606 0022 FFF7FEFF 		bl	__aeabi_fmul
 607              	.LVL111:
 608 0026 BDE8F883 		pop	{r3, r4, r5, r6, r7, r8, r9, pc}
 609              	.LVL112:
 610              	.L47:
 611 002a 1746     		mov	r7, r2
 612              	.LBB4:
  59:membership_functions.c **** 	else { // MIN
  60:membership_functions.c **** 		float x_min = y * (b - a) + a,
 613              		.loc 1 60 0
 614 002c 1046     		mov	r0, r2
 615              	.LVL113:
 616 002e FFF7FEFF 		bl	__aeabi_fsub
 617              	.LVL114:
 618 0032 0146     		mov	r1, r0
 619 0034 2046     		mov	r0, r4
 620 0036 FFF7FEFF 		bl	__aeabi_fmul
 621              	.LVL115:
 622 003a 0146     		mov	r1, r0
 623 003c 3046     		mov	r0, r6
 624 003e FFF7FEFF 		bl	__aeabi_fadd
ARM GAS  C:\Users\diego\AppData\Local\Temp\cc2NdClb.s 			page 13


 625              	.LVL116:
 626 0042 8046     		mov	r8, r0
 627              	.LVL117:
  61:membership_functions.c **** 			x_max = -y * (c - b) + c;
 628              		.loc 1 61 0
 629 0044 04F10049 		add	r9, r4, #-2147483648
 630 0048 3946     		mov	r1, r7
 631 004a 2846     		mov	r0, r5
 632              	.LVL118:
 633 004c FFF7FEFF 		bl	__aeabi_fsub
 634              	.LVL119:
 635 0050 0146     		mov	r1, r0
 636 0052 4846     		mov	r0, r9
 637 0054 FFF7FEFF 		bl	__aeabi_fmul
 638              	.LVL120:
 639 0058 0146     		mov	r1, r0
 640 005a 2846     		mov	r0, r5
 641 005c FFF7FEFF 		bl	__aeabi_fadd
 642              	.LVL121:
 643 0060 0746     		mov	r7, r0
 644              	.LVL122:
  62:membership_functions.c **** 
  63:membership_functions.c **** 		return ((c - a) + (x_max - x_min)) * y / 2.0f;
 645              		.loc 1 63 0
 646 0062 3146     		mov	r1, r6
 647 0064 2846     		mov	r0, r5
 648              	.LVL123:
 649 0066 FFF7FEFF 		bl	__aeabi_fsub
 650              	.LVL124:
 651 006a 0546     		mov	r5, r0
 652              	.LVL125:
 653 006c 4146     		mov	r1, r8
 654 006e 3846     		mov	r0, r7
 655 0070 FFF7FEFF 		bl	__aeabi_fsub
 656              	.LVL126:
 657 0074 0146     		mov	r1, r0
 658 0076 2846     		mov	r0, r5
 659 0078 FFF7FEFF 		bl	__aeabi_fadd
 660              	.LVL127:
 661 007c 0146     		mov	r1, r0
 662 007e 2046     		mov	r0, r4
 663 0080 FFF7FEFF 		bl	__aeabi_fmul
 664              	.LVL128:
 665 0084 4FF07C51 		mov	r1, #1056964608
 666 0088 FFF7FEFF 		bl	__aeabi_fmul
 667              	.LVL129:
 668              	.LBE4:
  64:membership_functions.c **** 	}
  65:membership_functions.c **** }
 669              		.loc 1 65 0
 670 008c BDE8F883 		pop	{r3, r4, r5, r6, r7, r8, r9, pc}
 671              		.cfi_endproc
 672              	.LFE4:
 673              		.size	trimf_area, .-trimf_area
 674              		.section	.text.trimf_cogx,"ax",%progbits
 675              		.align	2
 676              		.global	trimf_cogx
ARM GAS  C:\Users\diego\AppData\Local\Temp\cc2NdClb.s 			page 14


 677              		.thumb
 678              		.thumb_func
 679              		.type	trimf_cogx, %function
 680              	trimf_cogx:
 681              	.LFB5:
  66:membership_functions.c **** 
  67:membership_functions.c **** float trimf_cogx(float y, float a, float b, float c, enum T_NORM implication) {
 682              		.loc 1 67 0
 683              		.cfi_startproc
 684              		@ args = 4, pretend = 0, frame = 0
 685              		@ frame_needed = 0, uses_anonymous_args = 0
 686              	.LVL130:
 687 0000 2DE9F047 		push	{r4, r5, r6, r7, r8, r9, r10, lr}
 688              		.cfi_def_cfa_offset 32
 689              		.cfi_offset 4, -32
 690              		.cfi_offset 5, -28
 691              		.cfi_offset 6, -24
 692              		.cfi_offset 7, -20
 693              		.cfi_offset 8, -16
 694              		.cfi_offset 9, -12
 695              		.cfi_offset 10, -8
 696              		.cfi_offset 14, -4
 697 0004 82B0     		sub	sp, sp, #8
 698              		.cfi_def_cfa_offset 40
 699 0006 0C46     		mov	r4, r1
 700 0008 9046     		mov	r8, r2
 701 000a 1D46     		mov	r5, r3
 702 000c 9DF82870 		ldrb	r7, [sp, #40]	@ zero_extendqisi2
  68:membership_functions.c **** 	if (implication == PROD)
 703              		.loc 1 68 0
 704 0010 012F     		cmp	r7, #1
 705 0012 13D1     		bne	.L51
  69:membership_functions.c **** 		return a + ((c - a) + (b - a)) / 3.0f;
 706              		.loc 1 69 0
 707 0014 1846     		mov	r0, r3
 708              	.LVL131:
 709 0016 FFF7FEFF 		bl	__aeabi_fsub
 710              	.LVL132:
 711 001a 0546     		mov	r5, r0
 712              	.LVL133:
 713 001c 2146     		mov	r1, r4
 714 001e 4046     		mov	r0, r8
 715 0020 FFF7FEFF 		bl	__aeabi_fsub
 716              	.LVL134:
 717 0024 0146     		mov	r1, r0
 718 0026 2846     		mov	r0, r5
 719 0028 FFF7FEFF 		bl	__aeabi_fadd
 720              	.LVL135:
 721 002c 1649     		ldr	r1, .L54
 722 002e FFF7FEFF 		bl	__aeabi_fdiv
 723              	.LVL136:
 724 0032 0146     		mov	r1, r0
 725 0034 2046     		mov	r0, r4
 726 0036 FFF7FEFF 		bl	__aeabi_fadd
 727              	.LVL137:
 728 003a 21E0     		b	.L52
 729              	.LVL138:
ARM GAS  C:\Users\diego\AppData\Local\Temp\cc2NdClb.s 			page 15


 730              	.L51:
 731 003c 0646     		mov	r6, r0
 732              	.LBB5:
  70:membership_functions.c **** 	else { // MIN
  71:membership_functions.c **** 		float x_min = y * (b - a) + a,
 733              		.loc 1 71 0
 734 003e 1046     		mov	r0, r2
 735              	.LVL139:
 736 0040 FFF7FEFF 		bl	__aeabi_fsub
 737              	.LVL140:
 738 0044 3146     		mov	r1, r6
 739 0046 FFF7FEFF 		bl	__aeabi_fmul
 740              	.LVL141:
 741 004a 0146     		mov	r1, r0
 742 004c 2046     		mov	r0, r4
 743 004e FFF7FEFF 		bl	__aeabi_fadd
 744              	.LVL142:
 745 0052 8146     		mov	r9, r0
 746              	.LVL143:
  72:membership_functions.c **** 			x_max = -y * (c - b) + c;
 747              		.loc 1 72 0
 748 0054 06F1004A 		add	r10, r6, #-2147483648
 749 0058 4146     		mov	r1, r8
 750 005a 2846     		mov	r0, r5
 751              	.LVL144:
 752 005c FFF7FEFF 		bl	__aeabi_fsub
 753              	.LVL145:
 754 0060 0146     		mov	r1, r0
 755 0062 5046     		mov	r0, r10
 756 0064 FFF7FEFF 		bl	__aeabi_fmul
 757              	.LVL146:
 758 0068 0146     		mov	r1, r0
 759 006a 2846     		mov	r0, r5
 760 006c FFF7FEFF 		bl	__aeabi_fadd
 761              	.LVL147:
  73:membership_functions.c **** 
  74:membership_functions.c **** 		return trapmf_cogx(y, a, x_min, x_max, c, implication);
 762              		.loc 1 74 0
 763 0070 0197     		str	r7, [sp, #4]
 764 0072 0095     		str	r5, [sp]	@ float
 765 0074 0346     		mov	r3, r0
 766 0076 4A46     		mov	r2, r9
 767 0078 2146     		mov	r1, r4
 768 007a 3046     		mov	r0, r6
 769              	.LVL148:
 770 007c FFF7FEFF 		bl	trapmf_cogx
 771              	.LVL149:
 772              	.L52:
 773              	.LBE5:
  75:membership_functions.c **** 	}
  76:membership_functions.c **** }
 774              		.loc 1 76 0
 775 0080 02B0     		add	sp, sp, #8
 776              		.cfi_def_cfa_offset 32
 777              		@ sp needed
 778 0082 BDE8F087 		pop	{r4, r5, r6, r7, r8, r9, r10, pc}
 779              	.LVL150:
ARM GAS  C:\Users\diego\AppData\Local\Temp\cc2NdClb.s 			page 16


 780              	.L55:
 781 0086 00BF     		.align	2
 782              	.L54:
 783 0088 00004040 		.word	1077936128
 784              		.cfi_endproc
 785              	.LFE5:
 786              		.size	trimf_cogx, .-trimf_cogx
 787              		.text
 788              	.Letext0:
 789              		.file 2 "defines.h"