ARM GAS  C:\Users\diego\AppData\Local\Temp\cc8mzuTC.s 			page 1


   1              		.syntax unified
   2              		.cpu cortex-m3
   3              		.fpu softvfp
   4              		.eabi_attribute 20, 1
   5              		.eabi_attribute 21, 1
   6              		.eabi_attribute 23, 3
   7              		.eabi_attribute 24, 1
   8              		.eabi_attribute 25, 1
   9              		.eabi_attribute 26, 1
  10              		.eabi_attribute 30, 1
  11              		.eabi_attribute 34, 1
  12              		.eabi_attribute 18, 4
  13              		.thumb
  14              		.syntax unified
  15              		.file	"motor.c"
  16              		.text
  17              	.Ltext0:
  18              		.cfi_sections	.debug_frame
  19              		.section	.text.init_gs_kb,"ax",%progbits
  20              		.align	2
  21              		.global	init_gs_kb
  22              		.thumb
  23              		.thumb_func
  24              		.type	init_gs_kb, %function
  25              	init_gs_kb:
  26              	.LFB63:
  27              		.file 1 "gain_scheduling_kb.h"
   1:gain_scheduling_kb.h **** /* ========================================
   2:gain_scheduling_kb.h ****  *
   3:gain_scheduling_kb.h ****  * Copyright YOUR COMPANY, THE YEAR
   4:gain_scheduling_kb.h ****  * All Rights Reserved
   5:gain_scheduling_kb.h ****  * UNPUBLISHED, LICENSED SOFTWARE.
   6:gain_scheduling_kb.h ****  *
   7:gain_scheduling_kb.h ****  * CONFIDENTIAL AND PROPRIETARY INFORMATION
   8:gain_scheduling_kb.h ****  * WHICH IS THE PROPERTY OF your company.
   9:gain_scheduling_kb.h ****  *
  10:gain_scheduling_kb.h ****  * ========================================
  11:gain_scheduling_kb.h **** */
  12:gain_scheduling_kb.h **** #include "defines.h"
  13:gain_scheduling_kb.h **** #include "fis.h"
  14:gain_scheduling_kb.h **** #include "fuzzy_set.h"
  15:gain_scheduling_kb.h **** #include "linguistic_variable.h"
  16:gain_scheduling_kb.h **** #include "membership_functions.h"
  17:gain_scheduling_kb.h **** 
  18:gain_scheduling_kb.h **** #ifndef GAIN_SCHEDULING_KB_H
  19:gain_scheduling_kb.h ****     #define GAIN_SCHEDULING_KB_H
  20:gain_scheduling_kb.h ****     
  21:gain_scheduling_kb.h ****     #define MAX_VEL             31.4
  22:gain_scheduling_kb.h ****     #define MFDELTA             8
  23:gain_scheduling_kb.h ****     #define ERRMF(i)            -MAX_VEL+(2*MAX_VEL)*i/MFDELTA
  24:gain_scheduling_kb.h ****     #define DERRMF(i)           2*ERRMF(i)
  25:gain_scheduling_kb.h ****     
  26:gain_scheduling_kb.h ****     // Input Membership Functions
  27:gain_scheduling_kb.h ****     // --------------------------
  28:gain_scheduling_kb.h ****     // "mf_error" and "mf_derror": Negative big, medium and small (NB, NM, NS),
  29:gain_scheduling_kb.h ****     // aproximately zero (ZO) and Negative big, medium and small (NB, NM, NS);
  30:gain_scheduling_kb.h ****     // "mf_alpha": small (S or 2), medium small (MS or 3), medium (M or 4) and
ARM GAS  C:\Users\diego\AppData\Local\Temp\cc8mzuTC.s 			page 2


  31:gain_scheduling_kb.h ****     // big (B or 5).
  32:gain_scheduling_kb.h **** 	fuzzy_set mf_error[7],
  33:gain_scheduling_kb.h ****               mf_derror[7];
  34:gain_scheduling_kb.h ****     
  35:gain_scheduling_kb.h ****     // Output Membership Functions
  36:gain_scheduling_kb.h ****     fuzzy_set mf_Kp[2],
  37:gain_scheduling_kb.h ****               mf_Kd[2],
  38:gain_scheduling_kb.h ****               mf_alpha[4];
  39:gain_scheduling_kb.h ****             
  40:gain_scheduling_kb.h ****     // Input Linguistic Variables
  41:gain_scheduling_kb.h **** 	linguistic_variable lv_error, lv_derror;
  42:gain_scheduling_kb.h ****             
  43:gain_scheduling_kb.h ****     // Output Linguistic Variables
  44:gain_scheduling_kb.h ****     linguistic_variable lv_Kp, lv_Kd, lv_alpha;
  45:gain_scheduling_kb.h ****             
  46:gain_scheduling_kb.h **** 	rule rules[49];
  47:gain_scheduling_kb.h **** 	char rules_str[49][5][MAXSTR] = {
  48:gain_scheduling_kb.h **** 		{ "NB", "NB", "B", "S", "2" },
  49:gain_scheduling_kb.h **** 	    { "NB", "NM", "B", "S", "2" },
  50:gain_scheduling_kb.h **** 		{ "NB", "NS", "B", "S", "2" },
  51:gain_scheduling_kb.h **** 		{ "NB", "ZO", "B", "S", "2" },
  52:gain_scheduling_kb.h **** 		{ "NB", "PS", "B", "S", "2" },
  53:gain_scheduling_kb.h **** 		{ "NB", "PM", "B", "S", "2" },
  54:gain_scheduling_kb.h **** 		{ "NB", "PB", "B", "S", "2" },
  55:gain_scheduling_kb.h **** 
  56:gain_scheduling_kb.h **** 		
  57:gain_scheduling_kb.h **** 		{ "NM", "NB", "S", "B", "3" },
  58:gain_scheduling_kb.h **** 	    { "NM", "NM", "B", "B", "3" },
  59:gain_scheduling_kb.h **** 		{ "NM", "NS", "B", "S", "2" },
  60:gain_scheduling_kb.h **** 		{ "NM", "ZO", "B", "S", "2" },
  61:gain_scheduling_kb.h **** 		{ "NM", "PS", "B", "S", "2" },
  62:gain_scheduling_kb.h **** 		{ "NM", "PM", "B", "B", "3" },
  63:gain_scheduling_kb.h **** 		{ "NM", "PB", "S", "B", "3" },
  64:gain_scheduling_kb.h **** 
  65:gain_scheduling_kb.h **** 		
  66:gain_scheduling_kb.h **** 		{ "NS", "NB", "S", "B", "4" },
  67:gain_scheduling_kb.h **** 	    { "NS", "NM", "S", "B", "3" },
  68:gain_scheduling_kb.h **** 		{ "NS", "NS", "B", "B", "3" },
  69:gain_scheduling_kb.h **** 		{ "NS", "ZO", "B", "S", "2" },
  70:gain_scheduling_kb.h **** 		{ "NS", "PS", "B", "B", "3" },
  71:gain_scheduling_kb.h **** 		{ "NS", "PM", "S", "B", "3" },
  72:gain_scheduling_kb.h **** 		{ "NS", "PB", "S", "B", "4" },
  73:gain_scheduling_kb.h **** 
  74:gain_scheduling_kb.h **** 		
  75:gain_scheduling_kb.h **** 		{ "ZO", "NB", "S", "B", "5" },
  76:gain_scheduling_kb.h **** 	    { "ZO", "NM", "S", "B", "4" },
  77:gain_scheduling_kb.h **** 		{ "ZO", "NS", "S", "B", "3" },
  78:gain_scheduling_kb.h **** 		{ "ZO", "ZO", "B", "B", "3" },
  79:gain_scheduling_kb.h **** 		{ "ZO", "PS", "S", "B", "3" },
  80:gain_scheduling_kb.h **** 		{ "ZO", "PM", "S", "B", "4" },
  81:gain_scheduling_kb.h **** 		{ "ZO", "PB", "S", "B", "5" },
  82:gain_scheduling_kb.h **** 
  83:gain_scheduling_kb.h **** 		
  84:gain_scheduling_kb.h **** 		{ "PS", "NB", "S", "B", "4" },
  85:gain_scheduling_kb.h **** 	    { "PS", "NM", "S", "B", "3" },
  86:gain_scheduling_kb.h **** 		{ "PS", "NS", "B", "B", "3" },
  87:gain_scheduling_kb.h **** 		{ "PS", "ZO", "B", "S", "2" },
ARM GAS  C:\Users\diego\AppData\Local\Temp\cc8mzuTC.s 			page 3


  88:gain_scheduling_kb.h **** 		{ "PS", "PS", "B", "B", "3" },
  89:gain_scheduling_kb.h **** 		{ "PS", "PM", "S", "B", "3" },
  90:gain_scheduling_kb.h **** 		{ "PS", "PB", "S", "B", "4" },
  91:gain_scheduling_kb.h ****         
  92:gain_scheduling_kb.h ****         
  93:gain_scheduling_kb.h **** 		{ "PM", "NB", "S", "B", "3" },
  94:gain_scheduling_kb.h **** 	    { "PM", "NM", "B", "B", "3" },
  95:gain_scheduling_kb.h **** 		{ "PM", "NS", "B", "S", "2" },
  96:gain_scheduling_kb.h **** 		{ "PM", "ZO", "B", "S", "2" },
  97:gain_scheduling_kb.h **** 		{ "PM", "PS", "B", "S", "2" },
  98:gain_scheduling_kb.h **** 		{ "PM", "PM", "B", "B", "3" },
  99:gain_scheduling_kb.h **** 		{ "PM", "PB", "S", "B", "3" },
 100:gain_scheduling_kb.h ****         
 101:gain_scheduling_kb.h ****         
 102:gain_scheduling_kb.h **** 		{ "PB", "NB", "B", "S", "2" },
 103:gain_scheduling_kb.h **** 	    { "PB", "NM", "B", "S", "2" },
 104:gain_scheduling_kb.h **** 		{ "PB", "NS", "B", "S", "2" },
 105:gain_scheduling_kb.h **** 		{ "PB", "ZO", "B", "S", "2" },
 106:gain_scheduling_kb.h **** 		{ "PB", "PS", "B", "S", "2" },
 107:gain_scheduling_kb.h **** 		{ "PB", "PM", "B", "S", "2" },
 108:gain_scheduling_kb.h **** 		{ "PB", "PB", "B", "S", "2" },
 109:gain_scheduling_kb.h **** 	};
 110:gain_scheduling_kb.h ****     
 111:gain_scheduling_kb.h ****     void init_gs_kb() {
  28              		.loc 1 111 0
  29              		.cfi_startproc
  30              		@ args = 0, pretend = 0, frame = 0
  31              		@ frame_needed = 0, uses_anonymous_args = 0
  32 0000 2DE9F04F 		push	{r4, r5, r6, r7, r8, r9, r10, fp, lr}
  33              		.cfi_def_cfa_offset 36
  34              		.cfi_offset 4, -36
  35              		.cfi_offset 5, -32
  36              		.cfi_offset 6, -28
  37              		.cfi_offset 7, -24
  38              		.cfi_offset 8, -20
  39              		.cfi_offset 9, -16
  40              		.cfi_offset 10, -12
  41              		.cfi_offset 11, -8
  42              		.cfi_offset 14, -4
  43 0004 89B0     		sub	sp, sp, #36
  44              		.cfi_def_cfa_offset 72
 112:gain_scheduling_kb.h ****         create_fuzzy_set(&mf_error[0], "NB", TRAPEZOIDAL,  ERRMF(-1), ERRMF(0), ERRMF(1), ERRMF(2))
  45              		.loc 1 112 0
  46 0006 DFF814B3 		ldr	fp, .L5+164
  47 000a 9BA5     		adr	r5, .L5
  48 000c D5E90045 		ldrd	r4, [r5]
  49 0010 CDE90645 		strd	r4, [sp, #24]
  50 0014 9AA3     		adr	r3, .L5+8
  51 0016 D3E90023 		ldrd	r2, [r3]
  52 001a CDE90423 		strd	r2, [sp, #16]
  53 001e 9AA3     		adr	r3, .L5+16
  54 0020 D3E90023 		ldrd	r2, [r3]
  55 0024 CDE90223 		strd	r2, [sp, #8]
  56 0028 99A3     		adr	r3, .L5+24
  57 002a D3E90023 		ldrd	r2, [r3]
  58 002e CDE90023 		strd	r2, [sp]
  59 0032 0122     		movs	r2, #1
ARM GAS  C:\Users\diego\AppData\Local\Temp\cc8mzuTC.s 			page 4


  60 0034 B049     		ldr	r1, .L5+128
  61 0036 5846     		mov	r0, fp
  62 0038 FFF7FEFF 		bl	create_fuzzy_set
  63              	.LVL0:
 113:gain_scheduling_kb.h ****     	create_fuzzy_set(&mf_error[1], "NM", TRIANGULAR,    ERRMF(1), ERRMF(2), ERRMF(3),     0.0f);
  64              		.loc 1 113 0
  65 003c 4FF00008 		mov	r8, #0
  66 0040 4FF00009 		mov	r9, #0
  67 0044 CDE90689 		strd	r8, [sp, #24]
  68 0048 93A3     		adr	r3, .L5+32
  69 004a D3E90023 		ldrd	r2, [r3]
  70 004e CDE90423 		strd	r2, [sp, #16]
  71 0052 CDE90245 		strd	r4, [sp, #8]
  72 0056 8AA3     		adr	r3, .L5+8
  73 0058 D3E90023 		ldrd	r2, [r3]
  74 005c CDE90023 		strd	r2, [sp]
  75 0060 0022     		movs	r2, #0
  76 0062 A649     		ldr	r1, .L5+132
  77 0064 0BF11C00 		add	r0, fp, #28
  78 0068 FFF7FEFF 		bl	create_fuzzy_set
  79              	.LVL1:
 114:gain_scheduling_kb.h ****     	create_fuzzy_set(&mf_error[2], "NS", TRIANGULAR,    ERRMF(2), ERRMF(3), ERRMF(4),     0.0f);
  80              		.loc 1 114 0
  81 006c CDE90689 		strd	r8, [sp, #24]
  82 0070 CDE90489 		strd	r8, [sp, #16]
  83 0074 88A3     		adr	r3, .L5+32
  84 0076 D3E90023 		ldrd	r2, [r3]
  85 007a CDE90223 		strd	r2, [sp, #8]
  86 007e CDE90045 		strd	r4, [sp]
  87 0082 0022     		movs	r2, #0
  88 0084 9E49     		ldr	r1, .L5+136
  89 0086 0BF13800 		add	r0, fp, #56
  90 008a FFF7FEFF 		bl	create_fuzzy_set
  91              	.LVL2:
 115:gain_scheduling_kb.h ****     	create_fuzzy_set(&mf_error[3], "ZO", TRIANGULAR,    ERRMF(3), ERRMF(4), ERRMF(5),     0.0f);
  92              		.loc 1 115 0
  93 008e CDE90689 		strd	r8, [sp, #24]
  94 0092 83A7     		adr	r7, .L5+40
  95 0094 D7E90067 		ldrd	r6, [r7]
  96 0098 CDE90467 		strd	r6, [sp, #16]
  97 009c CDE90289 		strd	r8, [sp, #8]
  98 00a0 7DA4     		adr	r4, .L5+32
  99 00a2 D4E90034 		ldrd	r3, [r4]
 100 00a6 CDE90034 		strd	r3, [sp]
 101 00aa 0022     		movs	r2, #0
 102 00ac 9549     		ldr	r1, .L5+140
 103 00ae 0BF15400 		add	r0, fp, #84
 104 00b2 FFF7FEFF 		bl	create_fuzzy_set
 105              	.LVL3:
 116:gain_scheduling_kb.h ****     	create_fuzzy_set(&mf_error[4], "PS", TRIANGULAR,    ERRMF(4), ERRMF(5), ERRMF(6),     0.0f);
 106              		.loc 1 116 0
 107 00b6 CDE90689 		strd	r8, [sp, #24]
 108 00ba 7BA5     		adr	r5, .L5+48
 109 00bc D5E90045 		ldrd	r4, [r5]
 110 00c0 CDE90445 		strd	r4, [sp, #16]
 111 00c4 CDE90267 		strd	r6, [sp, #8]
 112 00c8 CDE90089 		strd	r8, [sp]
ARM GAS  C:\Users\diego\AppData\Local\Temp\cc8mzuTC.s 			page 5


 113 00cc 0022     		movs	r2, #0
 114 00ce 8E49     		ldr	r1, .L5+144
 115 00d0 0BF17000 		add	r0, fp, #112
 116 00d4 FFF7FEFF 		bl	create_fuzzy_set
 117              	.LVL4:
 117:gain_scheduling_kb.h ****     	create_fuzzy_set(&mf_error[5], "PM", TRIANGULAR,    ERRMF(5), ERRMF(6), ERRMF(7),     0.0f);
 118              		.loc 1 117 0
 119 00d8 CDE90689 		strd	r8, [sp, #24]
 120 00dc 74A3     		adr	r3, .L5+56
 121 00de D3E90023 		ldrd	r2, [r3]
 122 00e2 CDE90423 		strd	r2, [sp, #16]
 123 00e6 CDE90245 		strd	r4, [sp, #8]
 124 00ea CDE90067 		strd	r6, [sp]
 125 00ee 0022     		movs	r2, #0
 126 00f0 8649     		ldr	r1, .L5+148
 127 00f2 0BF18C00 		add	r0, fp, #140
 128 00f6 FFF7FEFF 		bl	create_fuzzy_set
 129              	.LVL5:
 118:gain_scheduling_kb.h ****         create_fuzzy_set(&mf_error[6], "PB", TRAPEZOIDAL,   ERRMF(6), ERRMF(7), ERRMF(8), ERRMF(9))
 130              		.loc 1 118 0
 131 00fa 6FA3     		adr	r3, .L5+64
 132 00fc D3E90023 		ldrd	r2, [r3]
 133 0100 CDE90623 		strd	r2, [sp, #24]
 134 0104 6EA3     		adr	r3, .L5+72
 135 0106 D3E90023 		ldrd	r2, [r3]
 136 010a CDE90423 		strd	r2, [sp, #16]
 137 010e 68A3     		adr	r3, .L5+56
 138 0110 D3E90023 		ldrd	r2, [r3]
 139 0114 CDE90223 		strd	r2, [sp, #8]
 140 0118 CDE90045 		strd	r4, [sp]
 141 011c 0122     		movs	r2, #1
 142 011e 7C49     		ldr	r1, .L5+152
 143 0120 0BF1A800 		add	r0, fp, #168
 144 0124 FFF7FEFF 		bl	create_fuzzy_set
 145              	.LVL6:
 119:gain_scheduling_kb.h ****         
 120:gain_scheduling_kb.h ****         create_fuzzy_set(&mf_derror[0], "NB", TRAPEZOIDAL,  DERRMF(-1), DERRMF(0), DERRMF(1), DERRM
 146              		.loc 1 120 0
 147 0128 DFF8F4A1 		ldr	r10, .L5+168
 148 012c 66A7     		adr	r7, .L5+80
 149 012e D7E90067 		ldrd	r6, [r7]
 150 0132 CDE90667 		strd	r6, [sp, #24]
 151 0136 66A5     		adr	r5, .L5+88
 152 0138 D5E90045 		ldrd	r4, [r5]
 153 013c CDE90445 		strd	r4, [sp, #16]
 154 0140 65A3     		adr	r3, .L5+96
 155 0142 D3E90023 		ldrd	r2, [r3]
 156 0146 CDE90223 		strd	r2, [sp, #8]
 157 014a 65A3     		adr	r3, .L5+104
 158 014c D3E90023 		ldrd	r2, [r3]
 159 0150 CDE90023 		strd	r2, [sp]
 160 0154 0122     		movs	r2, #1
 161 0156 6849     		ldr	r1, .L5+128
 162 0158 5046     		mov	r0, r10
 163 015a FFF7FEFF 		bl	create_fuzzy_set
 164              	.LVL7:
 121:gain_scheduling_kb.h ****     	create_fuzzy_set(&mf_derror[1], "NM", TRIANGULAR,    DERRMF(1), DERRMF(2), DERRMF(3),     0.0f
ARM GAS  C:\Users\diego\AppData\Local\Temp\cc8mzuTC.s 			page 6


 165              		.loc 1 121 0
 166 015e CDE90689 		strd	r8, [sp, #24]
 167 0162 4BA3     		adr	r3, .L5+24
 168 0164 D3E90023 		ldrd	r2, [r3]
 169 0168 CDE90423 		strd	r2, [sp, #16]
 170 016c CDE90267 		strd	r6, [sp, #8]
 171 0170 CDE90045 		strd	r4, [sp]
 172 0174 0022     		movs	r2, #0
 173 0176 6149     		ldr	r1, .L5+132
 174 0178 0AF11C00 		add	r0, r10, #28
 175 017c FFF7FEFF 		bl	create_fuzzy_set
 176              	.LVL8:
 122:gain_scheduling_kb.h ****     	create_fuzzy_set(&mf_derror[2], "NS", TRIANGULAR,    DERRMF(2), DERRMF(3), DERRMF(4),     0.0f
 177              		.loc 1 122 0
 178 0180 CDE90689 		strd	r8, [sp, #24]
 179 0184 40A4     		adr	r4, .L5+16
 180 0186 D4E90034 		ldrd	r3, [r4]
 181 018a CDE90434 		strd	r3, [sp, #16]
 182 018e 40A4     		adr	r4, .L5+24
 183 0190 D4E90034 		ldrd	r3, [r4]
 184 0194 CDE90234 		strd	r3, [sp, #8]
 185 0198 CDE90067 		strd	r6, [sp]
 186 019c 0022     		movs	r2, #0
 187 019e 5849     		ldr	r1, .L5+136
 188 01a0 0AF13800 		add	r0, r10, #56
 189 01a4 FFF7FEFF 		bl	create_fuzzy_set
 190              	.LVL9:
 123:gain_scheduling_kb.h ****     	create_fuzzy_set(&mf_derror[3], "ZO", TRIANGULAR,    DERRMF(3), DERRMF(4), DERRMF(5),     0.0f
 191              		.loc 1 123 0
 192 01a8 CDE90689 		strd	r8, [sp, #24]
 193 01ac 34A4     		adr	r4, .L5+8
 194 01ae D4E90034 		ldrd	r3, [r4]
 195 01b2 CDE90434 		strd	r3, [sp, #16]
 196 01b6 34A4     		adr	r4, .L5+16
 197 01b8 D4E90034 		ldrd	r3, [r4]
 198 01bc CDE90234 		strd	r3, [sp, #8]
 199 01c0 33A4     		adr	r4, .L5+24
 200 01c2 D4E90034 		ldrd	r3, [r4]
 201 01c6 CDE90034 		strd	r3, [sp]
 202 01ca 0022     		movs	r2, #0
 203 01cc 4D49     		ldr	r1, .L5+140
 204 01ce 0AF15400 		add	r0, r10, #84
 205 01d2 FFF7FEFF 		bl	create_fuzzy_set
 206              	.LVL10:
 124:gain_scheduling_kb.h ****     	create_fuzzy_set(&mf_derror[4], "PS", TRIANGULAR,    DERRMF(4), DERRMF(5), DERRMF(6),     0.0f
 207              		.loc 1 124 0
 208 01d6 CDE90689 		strd	r8, [sp, #24]
 209 01da 43A5     		adr	r5, .L5+112
 210 01dc D5E90045 		ldrd	r4, [r5]
 211 01e0 CDE90445 		strd	r4, [sp, #16]
 212 01e4 26A3     		adr	r3, .L5+8
 213 01e6 D3E90023 		ldrd	r2, [r3]
 214 01ea CDE90223 		strd	r2, [sp, #8]
 215 01ee 26A3     		adr	r3, .L5+16
 216 01f0 D3E90023 		ldrd	r2, [r3]
 217 01f4 CDE90023 		strd	r2, [sp]
 218 01f8 0022     		movs	r2, #0
ARM GAS  C:\Users\diego\AppData\Local\Temp\cc8mzuTC.s 			page 7


 219 01fa 4349     		ldr	r1, .L5+144
 220 01fc 0AF17000 		add	r0, r10, #112
 221 0200 FFF7FEFF 		bl	create_fuzzy_set
 222              	.LVL11:
 125:gain_scheduling_kb.h ****     	create_fuzzy_set(&mf_derror[5], "PM", TRIANGULAR,    DERRMF(5), DERRMF(6), DERRMF(7),     0.0f
 223              		.loc 1 125 0
 224 0204 CDE90689 		strd	r8, [sp, #24]
 225 0208 23A3     		adr	r3, .L5+32
 226 020a D3E90023 		ldrd	r2, [r3]
 227 020e CDE90423 		strd	r2, [sp, #16]
 228 0212 CDE90245 		strd	r4, [sp, #8]
 229 0216 1AA3     		adr	r3, .L5+8
 230 0218 D3E90023 		ldrd	r2, [r3]
 231 021c CDE90023 		strd	r2, [sp]
 232 0220 0022     		movs	r2, #0
 233 0222 3A49     		ldr	r1, .L5+148
 234 0224 0AF18C00 		add	r0, r10, #140
 235 0228 FFF7FEFF 		bl	create_fuzzy_set
 236              	.LVL12:
 126:gain_scheduling_kb.h ****         create_fuzzy_set(&mf_derror[6], "PB", TRAPEZOIDAL,   DERRMF(6), DERRMF(7), DERRMF(8), DERRM
 237              		.loc 1 126 0
 238 022c 30A3     		adr	r3, .L5+120
 239 022e D3E90023 		ldrd	r2, [r3]
 240 0232 CDE90623 		strd	r2, [sp, #24]
 241 0236 CDE90489 		strd	r8, [sp, #16]
 242 023a 17A3     		adr	r3, .L5+32
 243 023c D3E90023 		ldrd	r2, [r3]
 244 0240 CDE90223 		strd	r2, [sp, #8]
 245 0244 CDE90045 		strd	r4, [sp]
 246 0248 0122     		movs	r2, #1
 247 024a 3149     		ldr	r1, .L5+152
 248 024c 0AF1A800 		add	r0, r10, #168
 249 0250 FFF7FEFF 		bl	create_fuzzy_set
 250              	.LVL13:
 127:gain_scheduling_kb.h **** 
 128:gain_scheduling_kb.h ****     	create_fuzzy_set(&mf_Kd[0], "S", TRIANGULAR, -0.0f, 0.0f, 1.0f, 0);
 251              		.loc 1 128 0
 252 0254 2F4E     		ldr	r6, .L5+156
 253 0256 CDE90689 		strd	r8, [sp, #24]
 254 025a 0024     		movs	r4, #0
 255 025c 2E4D     		ldr	r5, .L5+160
 256 025e CDE90445 		strd	r4, [sp, #16]
 257 0262 CDE90289 		strd	r8, [sp, #8]
 258 0266 0022     		movs	r2, #0
 259 0268 4FF00043 		mov	r3, #-2147483648
 260 026c CDE90023 		strd	r2, [sp]
 261 0270 0022     		movs	r2, #0
 262 0272 57E0     		b	.L6
 263              	.L7:
 264 0274 AFF30080 		.align	3
 265              	.L5:
 266 0278 66666666 		.word	1717986918
 267 027c 66662FC0 		.word	-1070635418
 268 0280 CCCCCCCC 		.word	-858993460
 269 0284 CC8C37C0 		.word	-1070101300
 270 0288 66666666 		.word	1717986918
 271 028c 66663FC0 		.word	-1069586842
ARM GAS  C:\Users\diego\AppData\Local\Temp\cc8mzuTC.s 			page 8


 272 0290 00000000 		.word	0
 273 0294 00A043C0 		.word	-1069309952
 274 0298 68666666 		.word	1717986920
 275 029c 66661FC0 		.word	-1071683994
 276 02a0 68666666 		.word	1717986920
 277 02a4 66661F40 		.word	1075799654
 278 02a8 64666666 		.word	1717986916
 279 02ac 66662F40 		.word	1076848230
 280 02b0 CCCCCCCC 		.word	-858993460
 281 02b4 CC8C3740 		.word	1077382348
 282 02b8 FFFFFFFF 		.word	-1
 283 02bc FF9F4340 		.word	1078173695
 284 02c0 66666666 		.word	1717986918
 285 02c4 66663F40 		.word	1077896806
 286 02c8 CCCCCCCC 		.word	-858993460
 287 02cc CC8C47C0 		.word	-1069052724
 288 02d0 99999999 		.word	-1717986919
 289 02d4 99794BC0 		.word	-1068795495
 290 02d8 66666666 		.word	1717986918
 291 02dc 66664FC0 		.word	-1068538266
 292 02e0 99999999 		.word	-1717986919
 293 02e4 99A951C0 		.word	-1068389991
 294 02e8 68666666 		.word	1717986920
 295 02ec 66662FC0 		.word	-1070635418
 296 02f0 60666666 		.word	1717986912
 297 02f4 66661F40 		.word	1075799654
 298 02f8 00000000 		.word	.LC0
 299 02fc 04000000 		.word	.LC1
 300 0300 08000000 		.word	.LC2
 301 0304 0C000000 		.word	.LC3
 302 0308 10000000 		.word	.LC4
 303 030c 14000000 		.word	.LC5
 304 0310 18000000 		.word	.LC6
 305 0314 00000000 		.word	mf_Kd
 306 0318 0000F03F 		.word	1072693248
 307 031c 00000000 		.word	mf_error
 308 0320 00000000 		.word	mf_derror
 309              	.L6:
 310 0324 8A49     		ldr	r1, .L8+64
 311 0326 3046     		mov	r0, r6
 312 0328 FFF7FEFF 		bl	create_fuzzy_set
 313              	.LVL14:
 129:gain_scheduling_kb.h ****         create_fuzzy_set(&mf_Kd[1], "B", TRIANGULAR, 0.0f, 1.0f, 1.0f, 0);
 314              		.loc 1 129 0
 315 032c CDE90689 		strd	r8, [sp, #24]
 316 0330 CDE90445 		strd	r4, [sp, #16]
 317 0334 CDE90245 		strd	r4, [sp, #8]
 318 0338 CDE90089 		strd	r8, [sp]
 319 033c 0022     		movs	r2, #0
 320 033e 8549     		ldr	r1, .L8+68
 321 0340 06F11C00 		add	r0, r6, #28
 322 0344 FFF7FEFF 		bl	create_fuzzy_set
 323              	.LVL15:
 130:gain_scheduling_kb.h **** 
 131:gain_scheduling_kb.h ****     	create_fuzzy_set(&mf_Kp[0], "S", TRIANGULAR, -0.0f, 0.0f, 1.0f, 0);
 324              		.loc 1 131 0
 325 0348 834F     		ldr	r7, .L8+72
ARM GAS  C:\Users\diego\AppData\Local\Temp\cc8mzuTC.s 			page 9


 326 034a CDE90689 		strd	r8, [sp, #24]
 327 034e CDE90445 		strd	r4, [sp, #16]
 328 0352 CDE90289 		strd	r8, [sp, #8]
 329 0356 0022     		movs	r2, #0
 330 0358 4FF00043 		mov	r3, #-2147483648
 331 035c CDE90023 		strd	r2, [sp]
 332 0360 0022     		movs	r2, #0
 333 0362 7B49     		ldr	r1, .L8+64
 334 0364 3846     		mov	r0, r7
 335 0366 FFF7FEFF 		bl	create_fuzzy_set
 336              	.LVL16:
 132:gain_scheduling_kb.h ****         create_fuzzy_set(&mf_Kp[1], "B", TRIANGULAR, 0.0f, 1.0f, 1.0f, 0);
 337              		.loc 1 132 0
 338 036a CDE90689 		strd	r8, [sp, #24]
 339 036e CDE90445 		strd	r4, [sp, #16]
 340 0372 CDE90245 		strd	r4, [sp, #8]
 341 0376 CDE90089 		strd	r8, [sp]
 342 037a 0022     		movs	r2, #0
 343 037c 7549     		ldr	r1, .L8+68
 344 037e 07F11C00 		add	r0, r7, #28
 345 0382 FFF7FEFF 		bl	create_fuzzy_set
 346              	.LVL17:
 133:gain_scheduling_kb.h ****         
 134:gain_scheduling_kb.h ****         create_fuzzy_set(&mf_alpha[0], "2", TRIANGULAR, 1.99f, 2.0f, 2.01f, 0.0f);
 347              		.loc 1 134 0
 348 0386 754C     		ldr	r4, .L8+76
 349 0388 CDE90689 		strd	r8, [sp, #24]
 350 038c 60A3     		adr	r3, .L8
 351 038e D3E90023 		ldrd	r2, [r3]
 352 0392 CDE90423 		strd	r2, [sp, #16]
 353 0396 0022     		movs	r2, #0
 354 0398 4FF08043 		mov	r3, #1073741824
 355 039c CDE90223 		strd	r2, [sp, #8]
 356 03a0 5DA3     		adr	r3, .L8+8
 357 03a2 D3E90023 		ldrd	r2, [r3]
 358 03a6 CDE90023 		strd	r2, [sp]
 359 03aa 0022     		movs	r2, #0
 360 03ac 6C49     		ldr	r1, .L8+80
 361 03ae 2046     		mov	r0, r4
 362 03b0 FFF7FEFF 		bl	create_fuzzy_set
 363              	.LVL18:
 135:gain_scheduling_kb.h ****         create_fuzzy_set(&mf_alpha[1], "3", TRIANGULAR, 2.99f, 3.0f, 3.01f, 0.0f);
 364              		.loc 1 135 0
 365 03b4 CDE90689 		strd	r8, [sp, #24]
 366 03b8 59A3     		adr	r3, .L8+16
 367 03ba D3E90023 		ldrd	r2, [r3]
 368 03be CDE90423 		strd	r2, [sp, #16]
 369 03c2 0022     		movs	r2, #0
 370 03c4 674B     		ldr	r3, .L8+84
 371 03c6 CDE90223 		strd	r2, [sp, #8]
 372 03ca 57A3     		adr	r3, .L8+24
 373 03cc D3E90023 		ldrd	r2, [r3]
 374 03d0 CDE90023 		strd	r2, [sp]
 375 03d4 0022     		movs	r2, #0
 376 03d6 6449     		ldr	r1, .L8+88
 377 03d8 04F11C00 		add	r0, r4, #28
 378 03dc FFF7FEFF 		bl	create_fuzzy_set
ARM GAS  C:\Users\diego\AppData\Local\Temp\cc8mzuTC.s 			page 10


 379              	.LVL19:
 136:gain_scheduling_kb.h ****         create_fuzzy_set(&mf_alpha[2], "4", TRIANGULAR, 3.99f, 4.0f, 4.01f, 0.0f);
 380              		.loc 1 136 0
 381 03e0 CDE90689 		strd	r8, [sp, #24]
 382 03e4 52A3     		adr	r3, .L8+32
 383 03e6 D3E90023 		ldrd	r2, [r3]
 384 03ea CDE90423 		strd	r2, [sp, #16]
 385 03ee 0022     		movs	r2, #0
 386 03f0 5E4B     		ldr	r3, .L8+92
 387 03f2 CDE90223 		strd	r2, [sp, #8]
 388 03f6 50A3     		adr	r3, .L8+40
 389 03f8 D3E90023 		ldrd	r2, [r3]
 390 03fc CDE90023 		strd	r2, [sp]
 391 0400 0022     		movs	r2, #0
 392 0402 5B49     		ldr	r1, .L8+96
 393 0404 04F13800 		add	r0, r4, #56
 394 0408 FFF7FEFF 		bl	create_fuzzy_set
 395              	.LVL20:
 137:gain_scheduling_kb.h ****         create_fuzzy_set(&mf_alpha[3], "5", TRIANGULAR, 4.99f, 5.0f, 5.01f, 0.0f);
 396              		.loc 1 137 0
 397 040c CDE90689 		strd	r8, [sp, #24]
 398 0410 4BA3     		adr	r3, .L8+48
 399 0412 D3E90023 		ldrd	r2, [r3]
 400 0416 CDE90423 		strd	r2, [sp, #16]
 401 041a 0022     		movs	r2, #0
 402 041c 554B     		ldr	r3, .L8+100
 403 041e CDE90223 		strd	r2, [sp, #8]
 404 0422 49A3     		adr	r3, .L8+56
 405 0424 D3E90023 		ldrd	r2, [r3]
 406 0428 CDE90023 		strd	r2, [sp]
 407 042c 0022     		movs	r2, #0
 408 042e 5249     		ldr	r1, .L8+104
 409 0430 04F15400 		add	r0, r4, #84
 410 0434 FFF7FEFF 		bl	create_fuzzy_set
 411              	.LVL21:
 138:gain_scheduling_kb.h **** 
 139:gain_scheduling_kb.h ****     	create_linguistic_variable(&lv_error, "error", -MAX_VEL, MAX_VEL, 7, mf_error);
 412              		.loc 1 139 0
 413 0438 CDF804B0 		str	fp, [sp, #4]
 414 043c 0725     		movs	r5, #7
 415 043e 0095     		str	r5, [sp]
 416 0440 4E4B     		ldr	r3, .L8+108
 417 0442 4F4A     		ldr	r2, .L8+112
 418 0444 4F49     		ldr	r1, .L8+116
 419 0446 5048     		ldr	r0, .L8+120
 420 0448 FFF7FEFF 		bl	create_linguistic_variable
 421              	.LVL22:
 140:gain_scheduling_kb.h ****     	create_linguistic_variable(&lv_derror, "derror", -2.0f*MAX_VEL, 2.0f*MAX_VEL, 7, mf_derror);
 422              		.loc 1 140 0
 423 044c CDF804A0 		str	r10, [sp, #4]
 424 0450 0095     		str	r5, [sp]
 425 0452 4E4B     		ldr	r3, .L8+124
 426 0454 4E4A     		ldr	r2, .L8+128
 427 0456 4F49     		ldr	r1, .L8+132
 428 0458 4F48     		ldr	r0, .L8+136
 429 045a FFF7FEFF 		bl	create_linguistic_variable
 430              	.LVL23:
ARM GAS  C:\Users\diego\AppData\Local\Temp\cc8mzuTC.s 			page 11


 141:gain_scheduling_kb.h ****     	create_linguistic_variable(&lv_Kp, "Kp", 0.0f, 1.0f, 2, mf_Kp);
 431              		.loc 1 141 0
 432 045e 4FF07E58 		mov	r8, #1065353216
 433 0462 0025     		movs	r5, #0
 434 0464 0197     		str	r7, [sp, #4]
 435 0466 0227     		movs	r7, #2
 436 0468 0097     		str	r7, [sp]
 437 046a 4346     		mov	r3, r8
 438 046c 2A46     		mov	r2, r5
 439 046e 4B49     		ldr	r1, .L8+140
 440 0470 4B48     		ldr	r0, .L8+144
 441 0472 FFF7FEFF 		bl	create_linguistic_variable
 442              	.LVL24:
 142:gain_scheduling_kb.h ****     	create_linguistic_variable(&lv_Kd, "Kd", 0.0f, 1.0f, 2, mf_Kd);
 443              		.loc 1 142 0
 444 0476 0196     		str	r6, [sp, #4]
 445 0478 0097     		str	r7, [sp]
 446 047a 4346     		mov	r3, r8
 447 047c 2A46     		mov	r2, r5
 448 047e 4949     		ldr	r1, .L8+148
 449 0480 4948     		ldr	r0, .L8+152
 450 0482 FFF7FEFF 		bl	create_linguistic_variable
 451              	.LVL25:
 143:gain_scheduling_kb.h ****     	create_linguistic_variable(&lv_alpha, "alpha", 1.9f, 5.1f, 4, mf_alpha);
 452              		.loc 1 143 0
 453 0486 0194     		str	r4, [sp, #4]
 454 0488 0423     		movs	r3, #4
 455 048a 0093     		str	r3, [sp]
 456 048c 474B     		ldr	r3, .L8+156
 457 048e 484A     		ldr	r2, .L8+160
 458 0490 4849     		ldr	r1, .L8+164
 459 0492 4948     		ldr	r0, .L8+168
 460 0494 FFF7FEFF 		bl	create_linguistic_variable
 461              	.LVL26:
 462              	.LBB2:
 144:gain_scheduling_kb.h ****         
 145:gain_scheduling_kb.h ****     	for (int r = 0; r < 49; r++) {
 463              		.loc 1 145 0
 464 0498 0027     		movs	r7, #0
 465 049a 31E0     		b	.L2
 466              	.LVL27:
 467              	.L3:
 146:gain_scheduling_kb.h ****     		rules[r].n_in = 2;
 468              		.loc 1 146 0 discriminator 3
 469 049c DFF82081 		ldr	r8, .L8+176
 470 04a0 F425     		movs	r5, #244
 471 04a2 05FB07F5 		mul	r5, r5, r7
 472 04a6 08EB0500 		add	r0, r8, r5
 473 04aa 0221     		movs	r1, #2
 474 04ac 80F8F010 		strb	r1, [r0, #240]
 147:gain_scheduling_kb.h ****     		rules[r].n_out = 3;
 475              		.loc 1 147 0 discriminator 3
 476 04b0 4FF00309 		mov	r9, #3
 477 04b4 80F8F190 		strb	r9, [r0, #241]
 148:gain_scheduling_kb.h **** 
 149:gain_scheduling_kb.h ****     		create_sentence(
 150:gain_scheduling_kb.h ****                 &rules[r].lhs, 2,
ARM GAS  C:\Users\diego\AppData\Local\Temp\cc8mzuTC.s 			page 12


 151:gain_scheduling_kb.h ****                 &lv_error, rules_str[r][0],
 478              		.loc 1 151 0 discriminator 3
 479 04b8 404E     		ldr	r6, .L8+172
 480 04ba 3224     		movs	r4, #50
 481 04bc 04FB07F4 		mul	r4, r4, r7
 152:gain_scheduling_kb.h ****                 &lv_derror, rules_str[r][1]
 482              		.loc 1 152 0 discriminator 3
 483 04c0 04F10A03 		add	r3, r4, #10
 484 04c4 3344     		add	r3, r3, r6
 149:gain_scheduling_kb.h ****                 &rules[r].lhs, 2,
 485              		.loc 1 149 0 discriminator 3
 486 04c6 0193     		str	r3, [sp, #4]
 487 04c8 334B     		ldr	r3, .L8+136
 488 04ca 0093     		str	r3, [sp]
 489 04cc 3319     		adds	r3, r6, r4
 490 04ce 2E4A     		ldr	r2, .L8+120
 491 04d0 FFF7FEFF 		bl	create_sentence
 492              	.LVL28:
 153:gain_scheduling_kb.h ****             );
 154:gain_scheduling_kb.h ****             
 155:gain_scheduling_kb.h ****     		create_sentence(
 156:gain_scheduling_kb.h ****                 &rules[r].rhs, 3,
 157:gain_scheduling_kb.h ****                 &lv_Kp, rules_str[r][2],
 493              		.loc 1 157 0 discriminator 3
 494 04d4 04F11403 		add	r3, r4, #20
 158:gain_scheduling_kb.h ****                 &lv_Kd, rules_str[r][3],
 495              		.loc 1 158 0 discriminator 3
 496 04d8 04F11E02 		add	r2, r4, #30
 497 04dc 3244     		add	r2, r2, r6
 159:gain_scheduling_kb.h ****                 &lv_alpha, rules_str[r][4]
 498              		.loc 1 159 0 discriminator 3
 499 04de 2834     		adds	r4, r4, #40
 500 04e0 3444     		add	r4, r4, r6
 155:gain_scheduling_kb.h ****                 &rules[r].rhs, 3,
 501              		.loc 1 155 0 discriminator 3
 502 04e2 05F17800 		add	r0, r5, #120
 503 04e6 0394     		str	r4, [sp, #12]
 504 04e8 3349     		ldr	r1, .L8+168
 505 04ea 0291     		str	r1, [sp, #8]
 506 04ec 0192     		str	r2, [sp, #4]
 507 04ee 2E4A     		ldr	r2, .L8+152
 508 04f0 0092     		str	r2, [sp]
 509 04f2 3344     		add	r3, r3, r6
 510 04f4 2A4A     		ldr	r2, .L8+144
 511 04f6 4946     		mov	r1, r9
 512 04f8 4044     		add	r0, r0, r8
 513 04fa FFF7FEFF 		bl	create_sentence
 514              	.LVL29:
 145:gain_scheduling_kb.h ****     		rules[r].n_in = 2;
 515              		.loc 1 145 0 discriminator 3
 516 04fe 0137     		adds	r7, r7, #1
 517              	.LVL30:
 518              	.L2:
 145:gain_scheduling_kb.h ****     		rules[r].n_in = 2;
 519              		.loc 1 145 0 is_stmt 0 discriminator 1
 520 0500 302F     		cmp	r7, #48
 521 0502 CBDD     		ble	.L3
ARM GAS  C:\Users\diego\AppData\Local\Temp\cc8mzuTC.s 			page 13


 522              	.LBE2:
 160:gain_scheduling_kb.h ****             );
 161:gain_scheduling_kb.h ****     	}
 162:gain_scheduling_kb.h ****     }
 523              		.loc 1 162 0 is_stmt 1
 524 0504 09B0     		add	sp, sp, #36
 525              		.cfi_def_cfa_offset 36
 526              		@ sp needed
 527 0506 BDE8F08F 		pop	{r4, r5, r6, r7, r8, r9, r10, fp, pc}
 528              	.LVL31:
 529              	.L9:
 530 050a 00BFAFF3 		.align	3
 530      0080
 531              	.L8:
 532 0510 000000E0 		.word	-536870912
 533 0514 7A140040 		.word	1073747066
 534 0518 00000040 		.word	1073741824
 535 051c 0AD7FF3F 		.word	1073731338
 536 0520 000000E0 		.word	-536870912
 537 0524 7A140840 		.word	1074271354
 538 0528 00000020 		.word	536870912
 539 052c 85EB0740 		.word	1074260869
 540 0530 00000080 		.word	-2147483648
 541 0534 3D0A1040 		.word	1074793021
 542 0538 00000020 		.word	536870912
 543 053c 85EB0F40 		.word	1074785157
 544 0540 00000080 		.word	-2147483648
 545 0544 3D0A1440 		.word	1075055165
 546 0548 00000080 		.word	-2147483648
 547 054c C2F51340 		.word	1075049922
 548 0550 1C000000 		.word	.LC7
 549 0554 20000000 		.word	.LC8
 550 0558 00000000 		.word	mf_Kp
 551 055c 00000000 		.word	mf_alpha
 552 0560 24000000 		.word	.LC9
 553 0564 00000840 		.word	1074266112
 554 0568 28000000 		.word	.LC10
 555 056c 00001040 		.word	1074790400
 556 0570 2C000000 		.word	.LC11
 557 0574 00001440 		.word	1075052544
 558 0578 30000000 		.word	.LC12
 559 057c 3333FB41 		.word	1106981683
 560 0580 3333FBC1 		.word	-1040501965
 561 0584 34000000 		.word	.LC13
 562 0588 00000000 		.word	lv_error
 563 058c 33337B42 		.word	1115370291
 564 0590 33337BC2 		.word	-1032113357
 565 0594 3C000000 		.word	.LC14
 566 0598 00000000 		.word	lv_derror
 567 059c 44000000 		.word	.LC15
 568 05a0 00000000 		.word	lv_Kp
 569 05a4 48000000 		.word	.LC16
 570 05a8 00000000 		.word	lv_Kd
 571 05ac 3333A340 		.word	1084437299
 572 05b0 3333F33F 		.word	1072902963
 573 05b4 4C000000 		.word	.LC17
 574 05b8 00000000 		.word	lv_alpha
ARM GAS  C:\Users\diego\AppData\Local\Temp\cc8mzuTC.s 			page 14


 575 05bc 00000000 		.word	.LANCHOR0
 576 05c0 00000000 		.word	rules
 577              		.cfi_endproc
 578              	.LFE63:
 579              		.size	init_gs_kb, .-init_gs_kb
 580              		.global	__aeabi_i2f
 581              		.global	__aeabi_fmul
 582              		.global	__aeabi_fdiv
 583              		.global	__aeabi_fsub
 584              		.global	__aeabi_fadd
 585              		.global	__aeabi_fcmpgt
 586              		.global	__aeabi_f2iz
 587              		.section	.text.atualiza,"ax",%progbits
 588              		.align	2
 589              		.global	atualiza
 590              		.thumb
 591              		.thumb_func
 592              		.type	atualiza, %function
 593              	atualiza:
 594              	.LFB64:
 595              		.file 2 "motor.c"
   1:motor.c       **** /* ========================================
   2:motor.c       ****  *
   3:motor.c       ****  * Copyright YOUR COMPANY, THE YEAR
   4:motor.c       ****  * All Rights Reserved
   5:motor.c       ****  * UNPUBLISHED, LICENSED SOFTWARE.
   6:motor.c       ****  *
   7:motor.c       ****  * CONFIDENTIAL AND PROPRIETARY INFORMATION
   8:motor.c       ****  * WHICH IS THE PROPERTY OF your company.
   9:motor.c       ****  *
  10:motor.c       ****  * ========================================
  11:motor.c       **** */
  12:motor.c       **** 
  13:motor.c       **** #include <math.h>
  14:motor.c       **** 
  15:motor.c       **** #include "motor.h"
  16:motor.c       **** #include "aux_functions.h"
  17:motor.c       **** #include "gain_scheduling_kb.h"
  18:motor.c       **** 
  19:motor.c       **** #define TAM     100
  20:motor.c       **** 
  21:motor.c       **** volatile ControleMotor motor[ 3 ] =
  22:motor.c       **** {
  23:motor.c       ****     {
  24:motor.c       ****     	._motor.velRad = 0.0,
  25:motor.c       **** 		._motor.velRadMed = 0.0,
  26:motor.c       ****         ._motor.direcao = 0,
  27:motor.c       ****     	._motor.radPorPulso = RADSPERPULSE400RPM,
  28:motor.c       ****     	._motor.nPulsosAtual = 0,
  29:motor.c       ****     	._motor.nPulsosAnterior = 0,
  30:motor.c       ****     	._motor.difPulsos = 0,
  31:motor.c       ****         ._motor.maxVelRad = 31.0f,
  32:motor.c       ****         
  33:motor.c       ****     	.setPoint = 0.0,
  34:motor.c       ****     	.integral = 0.0,
  35:motor.c       ****     	.acao = 0.0,
  36:motor.c       **** 
ARM GAS  C:\Users\diego\AppData\Local\Temp\cc8mzuTC.s 			page 15


  37:motor.c       ****     	.Kp = 0.239,
  38:motor.c       ****     	.Ki = 0.051,
  39:motor.c       ****         .Kd = 0.0,
  40:motor.c       ****     	.maxAcao = 300,
  41:motor.c       ****     	.maxIntegral = 100.0,
  42:motor.c       ****     	
  43:motor.c       ****     	.periodo = 0.01
  44:motor.c       ****     },
  45:motor.c       ****     
  46:motor.c       ****     {
  47:motor.c       ****     	._motor.velRad = 0.0,
  48:motor.c       **** 		._motor.velRadMed = 0.0,
  49:motor.c       ****         ._motor.direcao = 0,
  50:motor.c       ****     	._motor.radPorPulso = RADSPERPULSE400RPM,
  51:motor.c       ****     	._motor.nPulsosAtual = 0,
  52:motor.c       ****     	._motor.nPulsosAnterior = 0,
  53:motor.c       ****     	._motor.difPulsos = 0,
  54:motor.c       ****     	._motor.maxVelRad = 31.0f,
  55:motor.c       ****         
  56:motor.c       ****     	.setPoint = 0.0,
  57:motor.c       ****     	.integral = 0.0,
  58:motor.c       ****     	.acao = 0.0,
  59:motor.c       **** 
  60:motor.c       ****     	.Kp = 0.239,
  61:motor.c       ****     	.Ki = 0.051,
  62:motor.c       ****         .Kd = 0.0,
  63:motor.c       ****     	.maxAcao = 300.0,
  64:motor.c       ****     	.maxIntegral = 100.0,
  65:motor.c       ****     	
  66:motor.c       ****     	.periodo = 0.01
  67:motor.c       ****     },
  68:motor.c       ****     
  69:motor.c       ****     {
  70:motor.c       ****     	._motor.velRad = 0.0,
  71:motor.c       **** 		._motor.velRadMed = 0.0,
  72:motor.c       ****         ._motor.direcao = 0,
  73:motor.c       ****     	._motor.radPorPulso = RADSPERPULSE400RPM,
  74:motor.c       ****     	._motor.nPulsosAtual = 0,
  75:motor.c       ****     	._motor.nPulsosAnterior = 0,
  76:motor.c       ****     	._motor.difPulsos = 0,
  77:motor.c       ****     	._motor.maxVelRad = 31.0f,
  78:motor.c       ****         
  79:motor.c       ****     	.setPoint = 0.0,
  80:motor.c       ****     	.integral = 0.0,
  81:motor.c       ****     	.acao = 0.0,
  82:motor.c       **** 
  83:motor.c       ****     	.Kp = 0.239,
  84:motor.c       ****     	.Ki = 0.051,
  85:motor.c       ****         .Kd = 0.0,
  86:motor.c       ****     	.maxAcao = 300.0,
  87:motor.c       ****     	.maxIntegral = 100.0,
  88:motor.c       ****     	
  89:motor.c       ****     	.periodo = 0.01
  90:motor.c       ****     }
  91:motor.c       **** };
  92:motor.c       **** 
  93:motor.c       **** float memoria[3][TAM] = {{0.0}};
ARM GAS  C:\Users\diego\AppData\Local\Temp\cc8mzuTC.s 			page 16


  94:motor.c       **** uint8 mem_idx = 0;
  95:motor.c       **** 
  96:motor.c       **** #define percent 0.9f
  97:motor.c       **** 
  98:motor.c       **** //float Kp_min = 0.239 * (1 - percent),
  99:motor.c       **** //        Kp_max = 0.239 * (1 + percent),
 100:motor.c       **** //        Ki_min = 0.051 * (1 - percent),
 101:motor.c       **** //        Ki_max = 0.051 * (1 + percent);
 102:motor.c       **** 
 103:motor.c       **** float Kp_min = 0.0f, Kp_max = 0.239,
 104:motor.c       ****       Ki_min = 0.0f, Ki_max = 0.051;
 105:motor.c       **** 
 106:motor.c       **** float y[MAXOUTVARS] = { 0.0f }, x[MAXINVARS] = { 0.0f };
 107:motor.c       **** 
 108:motor.c       **** void atualiza(volatile ControleMotor *motor) {
 596              		.loc 2 108 0
 597              		.cfi_startproc
 598              		@ args = 0, pretend = 0, frame = 0
 599              		@ frame_needed = 0, uses_anonymous_args = 0
 600              	.LVL32:
 601 0000 38B5     		push	{r3, r4, r5, lr}
 602              		.cfi_def_cfa_offset 16
 603              		.cfi_offset 3, -16
 604              		.cfi_offset 4, -12
 605              		.cfi_offset 5, -8
 606              		.cfi_offset 14, -4
 607 0002 0446     		mov	r4, r0
 109:motor.c       ****     motor->_motor.difPulsos = motor->_motor.nPulsosAtual - motor->_motor.nPulsosAnterior;
 608              		.loc 2 109 0
 609 0004 038F     		ldrh	r3, [r0, #56]
 610 0006 9AB2     		uxth	r2, r3
 611 0008 438F     		ldrh	r3, [r0, #58]
 612 000a 9BB2     		uxth	r3, r3
 613 000c D31A     		subs	r3, r2, r3
 614 000e 1BB2     		sxth	r3, r3
 615 0010 8387     		strh	r3, [r0, #60]	@ movhi
 110:motor.c       ****     motor->_motor.velRad = motor->_motor.radPorPulso * motor->_motor.difPulsos / motor->periodo;
 616              		.loc 2 110 0
 617 0012 456C     		ldr	r5, [r0, #68]	@ float
 618 0014 808F     		ldrh	r0, [r0, #60]
 619              	.LVL33:
 620 0016 00B2     		sxth	r0, r0
 621 0018 FFF7FEFF 		bl	__aeabi_i2f
 622              	.LVL34:
 623 001c 2946     		mov	r1, r5
 624 001e FFF7FEFF 		bl	__aeabi_fmul
 625              	.LVL35:
 626 0022 6169     		ldr	r1, [r4, #20]	@ float
 627 0024 FFF7FEFF 		bl	__aeabi_fdiv
 628              	.LVL36:
 629 0028 E062     		str	r0, [r4, #44]	@ float
 111:motor.c       ****     
 112:motor.c       ****     motor->erro = motor->setPoint - motor->_motor.velRad;
 630              		.loc 2 112 0
 631 002a 2068     		ldr	r0, [r4]	@ float
 632 002c E16A     		ldr	r1, [r4, #44]	@ float
 633 002e FFF7FEFF 		bl	__aeabi_fsub
ARM GAS  C:\Users\diego\AppData\Local\Temp\cc8mzuTC.s 			page 17


 634              	.LVL37:
 635 0032 6060     		str	r0, [r4, #4]	@ float
 113:motor.c       ****     
 114:motor.c       ****     //x[1] = motor->erro - motor->erroAnt;
 115:motor.c       ****     //x[0] = motor->erro;
 116:motor.c       ****     //inference(rules, 49, PROD, PROD, x, y);
 117:motor.c       ****     
 118:motor.c       ****     //motor->Kp = (Kp_max - Kp_min) * y[0] + Kp_min;
 119:motor.c       ****     //motor->Kd = y[1];
 120:motor.c       ****     //motor->Ki = motor->Kp * motor->Kp / (motor->Kd * y[2]);
 121:motor.c       ****     
 122:motor.c       ****     //motor->Kp = y[0];
 123:motor.c       ****     //motor->Kd = y[1];
 124:motor.c       ****     //motor->Ki = motor->Kp * motor->Kp / (y[2]);
 125:motor.c       ****     
 126:motor.c       ****     //motor->integral += (motor->erro + motor->erroAnt) * motor->periodo / 2.0;
 127:motor.c       ****     motor->integral += motor->erro;
 636              		.loc 2 127 0
 637 0034 6068     		ldr	r0, [r4, #4]	@ float
 638 0036 E168     		ldr	r1, [r4, #12]	@ float
 639 0038 FFF7FEFF 		bl	__aeabi_fadd
 640              	.LVL38:
 641 003c E060     		str	r0, [r4, #12]	@ float
 128:motor.c       ****     
 129:motor.c       ****     motor->acao = motor->Kp * motor->erro + motor->Ki * motor->integral;
 642              		.loc 2 129 0
 643 003e A069     		ldr	r0, [r4, #24]	@ float
 644 0040 6168     		ldr	r1, [r4, #4]	@ float
 645 0042 FFF7FEFF 		bl	__aeabi_fmul
 646              	.LVL39:
 647 0046 0546     		mov	r5, r0
 648 0048 206A     		ldr	r0, [r4, #32]	@ float
 649 004a E168     		ldr	r1, [r4, #12]	@ float
 650 004c FFF7FEFF 		bl	__aeabi_fmul
 651              	.LVL40:
 652 0050 0146     		mov	r1, r0
 653 0052 2846     		mov	r0, r5
 654 0054 FFF7FEFF 		bl	__aeabi_fadd
 655              	.LVL41:
 656 0058 2061     		str	r0, [r4, #16]	@ float
 130:motor.c       ****     //motor->acao = motor->Kp * motor->erro + motor->Ki * motor->integral +
 131:motor.c       ****     //    motor->Kd * (motor->erro - motor->erroAnt);
 132:motor.c       ****         
 133:motor.c       ****     //motor->acao = (motor->acao > MAX_PWM ? MAX_PWM : motor->acao);
 134:motor.c       ****     motor->_motor.direcao = (motor->acao > 0);
 657              		.loc 2 134 0
 658 005a 2069     		ldr	r0, [r4, #16]	@ float
 659 005c 4FF00105 		mov	r5, #1
 660 0060 0021     		movs	r1, #0
 661 0062 FFF7FEFF 		bl	__aeabi_fcmpgt
 662              	.LVL42:
 663 0066 08B9     		cbnz	r0, .L11
 664 0068 4FF00005 		mov	r5, #0
 665              	.L11:
 666 006c 84F84050 		strb	r5, [r4, #64]
 135:motor.c       ****     
 136:motor.c       ****     motor->_motor.pwm = (int)fabsf((motor->acao / motor->_motor.maxVelRad) * (MAX_PWM - MIN_PWM));
ARM GAS  C:\Users\diego\AppData\Local\Temp\cc8mzuTC.s 			page 18


 667              		.loc 2 136 0
 668 0070 2069     		ldr	r0, [r4, #16]	@ float
 669 0072 A16C     		ldr	r1, [r4, #72]	@ float
 670 0074 FFF7FEFF 		bl	__aeabi_fdiv
 671              	.LVL43:
 672 0078 0749     		ldr	r1, .L13
 673 007a FFF7FEFF 		bl	__aeabi_fmul
 674              	.LVL44:
 675 007e 20F00040 		bic	r0, r0, #-2147483648
 676 0082 FFF7FEFF 		bl	__aeabi_f2iz
 677              	.LVL45:
 678 0086 80B2     		uxth	r0, r0
 679 0088 E087     		strh	r0, [r4, #62]	@ movhi
 137:motor.c       ****     //motor->_motor.pwm = (motor->_motor.pwm > MAX_PWM ? MAX_PWM : motor->_motor.pwm);
 138:motor.c       ****     
 139:motor.c       ****     //motor->_motor.pwm = (int)fabsf(motor->acao);
 140:motor.c       ****     
 141:motor.c       ****     motor->_motor.nPulsosAnterior = motor->_motor.nPulsosAtual;
 680              		.loc 2 141 0
 681 008a 238F     		ldrh	r3, [r4, #56]
 682 008c 9BB2     		uxth	r3, r3
 683 008e 6387     		strh	r3, [r4, #58]	@ movhi
 142:motor.c       ****     motor->erroAnt = motor->erro;
 684              		.loc 2 142 0
 685 0090 6368     		ldr	r3, [r4, #4]	@ float
 686 0092 A360     		str	r3, [r4, #8]	@ float
 687 0094 38BD     		pop	{r3, r4, r5, pc}
 688              	.LVL46:
 689              	.L14:
 690 0096 00BF     		.align	2
 691              	.L13:
 692 0098 0000FA44 		.word	1157234688
 693              		.cfi_endproc
 694              	.LFE64:
 695              		.size	atualiza, .-atualiza
 696              		.global	__aeabi_fcmplt
 697              		.section	.text.controle_motores_isr,"ax",%progbits
 698              		.align	2
 699              		.global	controle_motores_isr
 700              		.thumb
 701              		.thumb_func
 702              		.type	controle_motores_isr, %function
 703              	controle_motores_isr:
 704              	.LFB65:
 143:motor.c       **** }
 144:motor.c       **** 
 145:motor.c       **** void controle_motores_isr() {
 705              		.loc 2 145 0
 706              		.cfi_startproc
 707              		@ args = 0, pretend = 0, frame = 0
 708              		@ frame_needed = 0, uses_anonymous_args = 0
 709 0000 70B5     		push	{r4, r5, r6, lr}
 710              		.cfi_def_cfa_offset 16
 711              		.cfi_offset 4, -16
 712              		.cfi_offset 5, -12
 713              		.cfi_offset 6, -8
 714              		.cfi_offset 14, -4
ARM GAS  C:\Users\diego\AppData\Local\Temp\cc8mzuTC.s 			page 19


 146:motor.c       ****     motor[0]._motor.nPulsosAtual = QuadDec1_GetCounter();
 715              		.loc 2 146 0
 716 0002 FFF7FEFF 		bl	QuadDec1_GetCounter
 717              	.LVL47:
 718 0006 80B2     		uxth	r0, r0
 719 0008 444C     		ldr	r4, .L24
 720 000a A4F8CC09 		strh	r0, [r4, #2508]	@ movhi
 147:motor.c       ****     motor[1]._motor.nPulsosAtual = QuadDec2_GetCounter();
 721              		.loc 2 147 0
 722 000e FFF7FEFF 		bl	QuadDec2_GetCounter
 723              	.LVL48:
 724 0012 80B2     		uxth	r0, r0
 725 0014 A4F8180A 		strh	r0, [r4, #2584]	@ movhi
 148:motor.c       ****     motor[2]._motor.nPulsosAtual = QuadDec3_GetCounter();
 726              		.loc 2 148 0
 727 0018 FFF7FEFF 		bl	QuadDec3_GetCounter
 728              	.LVL49:
 729 001c 80B2     		uxth	r0, r0
 730 001e A4F8640A 		strh	r0, [r4, #2660]	@ movhi
 731              	.LVL50:
 732              	.LBB3:
 149:motor.c       ****     
 150:motor.c       ****     for (int m = 0; m < 3; m++)
 733              		.loc 2 150 0
 734 0022 0024     		movs	r4, #0
 735 0024 06E0     		b	.L16
 736              	.LVL51:
 737              	.L17:
 151:motor.c       ****         atualiza(&motor[m]);
 738              		.loc 2 151 0 discriminator 3
 739 0026 4C20     		movs	r0, #76
 740 0028 3D4B     		ldr	r3, .L24+4
 741 002a 00FB0430 		mla	r0, r0, r4, r3
 742 002e FFF7FEFF 		bl	atualiza
 743              	.LVL52:
 150:motor.c       ****         atualiza(&motor[m]);
 744              		.loc 2 150 0 discriminator 3
 745 0032 0134     		adds	r4, r4, #1
 746              	.LVL53:
 747              	.L16:
 150:motor.c       ****         atualiza(&motor[m]);
 748              		.loc 2 150 0 is_stmt 0 discriminator 1
 749 0034 022C     		cmp	r4, #2
 750 0036 F6DD     		ble	.L17
 751              	.LBE3:
 152:motor.c       ****     
 153:motor.c       ****     int index = (mem_idx + 1 >= TAM ? (mem_idx = 0) : ++mem_idx);
 752              		.loc 2 153 0 is_stmt 1
 753 0038 3A4B     		ldr	r3, .L24+8
 754 003a 1C78     		ldrb	r4, [r3]	@ zero_extendqisi2
 755              	.LVL54:
 756 003c 631C     		adds	r3, r4, #1
 757 003e 632B     		cmp	r3, #99
 758 0040 03DD     		ble	.L18
 759              		.loc 2 153 0 is_stmt 0 discriminator 1
 760 0042 0024     		movs	r4, #0
 761 0044 374B     		ldr	r3, .L24+8
ARM GAS  C:\Users\diego\AppData\Local\Temp\cc8mzuTC.s 			page 20


 762 0046 1C70     		strb	r4, [r3]
 763 0048 03E0     		b	.L19
 764              	.L18:
 765              		.loc 2 153 0 discriminator 2
 766 004a 0134     		adds	r4, r4, #1
 767 004c E4B2     		uxtb	r4, r4
 768 004e 354B     		ldr	r3, .L24+8
 769 0050 1C70     		strb	r4, [r3]
 770              	.L19:
 771              	.LVL55:
 154:motor.c       ****     
 155:motor.c       ****     memoria[0][index] = motor[0]._motor.velRad;
 772              		.loc 2 155 0 is_stmt 1 discriminator 4
 773 0052 324D     		ldr	r5, .L24
 774 0054 D5F8C029 		ldr	r2, [r5, #2496]	@ float
 775 0058 324E     		ldr	r6, .L24+8
 776 005a 06EB8403 		add	r3, r6, r4, lsl #2
 777 005e 5A60     		str	r2, [r3, #4]	@ float
 156:motor.c       ****     motor[0]._motor.velRadMed = media(memoria[0], TAM);
 778              		.loc 2 156 0 discriminator 4
 779 0060 6421     		movs	r1, #100
 780 0062 301D     		adds	r0, r6, #4
 781 0064 FFF7FEFF 		bl	media
 782              	.LVL56:
 783 0068 C5F8C409 		str	r0, [r5, #2500]	@ float
 157:motor.c       ****     
 158:motor.c       ****     memoria[1][index] = motor[1]._motor.velRad;
 784              		.loc 2 158 0 discriminator 4
 785 006c D5F80C2A 		ldr	r2, [r5, #2572]	@ float
 786 0070 04F16403 		add	r3, r4, #100
 787 0074 06EB8303 		add	r3, r6, r3, lsl #2
 788 0078 5A60     		str	r2, [r3, #4]	@ float
 159:motor.c       ****     motor[1]._motor.velRadMed = media(memoria[1], TAM);
 789              		.loc 2 159 0 discriminator 4
 790 007a 6421     		movs	r1, #100
 791 007c 06F5CA70 		add	r0, r6, #404
 792 0080 FFF7FEFF 		bl	media
 793              	.LVL57:
 794 0084 C5F8100A 		str	r0, [r5, #2576]	@ float
 160:motor.c       ****     
 161:motor.c       ****     memoria[2][index] = motor[2]._motor.velRad;
 795              		.loc 2 161 0 discriminator 4
 796 0088 D5F8583A 		ldr	r3, [r5, #2648]	@ float
 797 008c C834     		adds	r4, r4, #200
 798              	.LVL58:
 799 008e 06EB8404 		add	r4, r6, r4, lsl #2
 800              	.LVL59:
 801 0092 6360     		str	r3, [r4, #4]	@ float
 162:motor.c       ****     motor[2]._motor.velRadMed = media(memoria[2], TAM);
 802              		.loc 2 162 0 discriminator 4
 803 0094 6421     		movs	r1, #100
 804 0096 06F54970 		add	r0, r6, #804
 805 009a FFF7FEFF 		bl	media
 806              	.LVL60:
 807 009e C5F85C0A 		str	r0, [r5, #2652]	@ float
 163:motor.c       ****     
 164:motor.c       ****     dir1_Write(motor[0].acao < 0);
ARM GAS  C:\Users\diego\AppData\Local\Temp\cc8mzuTC.s 			page 21


 808              		.loc 2 164 0 discriminator 4
 809 00a2 D5F8A409 		ldr	r0, [r5, #2468]	@ float
 810 00a6 4FF00104 		mov	r4, #1
 811 00aa 0021     		movs	r1, #0
 812 00ac FFF7FEFF 		bl	__aeabi_fcmplt
 813              	.LVL61:
 814 00b0 08B9     		cbnz	r0, .L20
 815 00b2 4FF00004 		mov	r4, #0
 816              	.L20:
 817 00b6 04F00100 		and	r0, r4, #1
 818 00ba FFF7FEFF 		bl	dir1_Write
 819              	.LVL62:
 165:motor.c       ****     BlocoPWM1_WriteCompare(motor[0]._motor.pwm);
 820              		.loc 2 165 0 discriminator 4
 821 00be 174C     		ldr	r4, .L24
 822 00c0 B4F8D209 		ldrh	r0, [r4, #2514]
 823 00c4 80B2     		uxth	r0, r0
 824 00c6 FFF7FEFF 		bl	BlocoPWM1_WriteCompare
 825              	.LVL63:
 166:motor.c       ****     
 167:motor.c       ****     dir2_Write(motor[1].acao < 0);
 826              		.loc 2 167 0 discriminator 4
 827 00ca D4F8F009 		ldr	r0, [r4, #2544]	@ float
 828 00ce 4FF00104 		mov	r4, #1
 829 00d2 0021     		movs	r1, #0
 830 00d4 FFF7FEFF 		bl	__aeabi_fcmplt
 831              	.LVL64:
 832 00d8 08B9     		cbnz	r0, .L21
 833 00da 4FF00004 		mov	r4, #0
 834              	.L21:
 835 00de 04F00100 		and	r0, r4, #1
 836 00e2 FFF7FEFF 		bl	dir2_Write
 837              	.LVL65:
 168:motor.c       ****     BlocoPWM2_WriteCompare(motor[1]._motor.pwm);
 838              		.loc 2 168 0 discriminator 4
 839 00e6 0D4C     		ldr	r4, .L24
 840 00e8 B4F81E0A 		ldrh	r0, [r4, #2590]
 841 00ec 80B2     		uxth	r0, r0
 842 00ee FFF7FEFF 		bl	BlocoPWM2_WriteCompare
 843              	.LVL66:
 169:motor.c       ****     
 170:motor.c       ****     dir3_Write(motor[2].acao < 0);
 844              		.loc 2 170 0 discriminator 4
 845 00f2 D4F83C0A 		ldr	r0, [r4, #2620]	@ float
 846 00f6 4FF00104 		mov	r4, #1
 847 00fa 0021     		movs	r1, #0
 848 00fc FFF7FEFF 		bl	__aeabi_fcmplt
 849              	.LVL67:
 850 0100 08B9     		cbnz	r0, .L22
 851 0102 4FF00004 		mov	r4, #0
 852              	.L22:
 853 0106 04F00100 		and	r0, r4, #1
 854 010a FFF7FEFF 		bl	dir3_Write
 855              	.LVL68:
 171:motor.c       ****     BlocoPWM3_WriteCompare(motor[2]._motor.pwm);
 856              		.loc 2 171 0 discriminator 4
 857 010e 034B     		ldr	r3, .L24
ARM GAS  C:\Users\diego\AppData\Local\Temp\cc8mzuTC.s 			page 22


 858 0110 B3F86A0A 		ldrh	r0, [r3, #2666]
 859 0114 80B2     		uxth	r0, r0
 860 0116 FFF7FEFF 		bl	BlocoPWM3_WriteCompare
 861              	.LVL69:
 862 011a 70BD     		pop	{r4, r5, r6, pc}
 863              	.L25:
 864              		.align	2
 865              	.L24:
 866 011c 00000000 		.word	.LANCHOR0
 867 0120 94090000 		.word	.LANCHOR0+2452
 868 0124 00000000 		.word	.LANCHOR1
 869              		.cfi_endproc
 870              	.LFE65:
 871              		.size	controle_motores_isr, .-controle_motores_isr
 872              		.global	x
 873              		.global	y
 874              		.global	Ki_max
 875              		.global	Ki_min
 876              		.global	Kp_max
 877              		.global	Kp_min
 878              		.global	mem_idx
 879              		.global	memoria
 880              		.global	motor
 881              		.global	rules_str
 882              		.comm	rules,11956,4
 883              		.comm	lv_alpha,28,4
 884              		.comm	lv_Kd,28,4
 885              		.comm	lv_Kp,28,4
 886              		.comm	lv_derror,28,4
 887              		.comm	lv_error,28,4
 888              		.comm	mf_alpha,112,4
 889              		.comm	mf_Kd,56,4
 890              		.comm	mf_Kp,56,4
 891              		.comm	mf_derror,196,4
 892              		.comm	mf_error,196,4
 893              		.data
 894              		.align	2
 895              		.set	.LANCHOR0,. + 0
 896              		.type	rules_str, %object
 897              		.size	rules_str, 2450
 898              	rules_str:
 899 0000 4E4200   		.ascii	"NB\000"
 900 0003 00000000 		.space	7
 900      000000
 901 000a 4E4200   		.ascii	"NB\000"
 902 000d 00000000 		.space	7
 902      000000
 903 0014 4200     		.ascii	"B\000"
 904 0016 00000000 		.space	8
 904      00000000 
 905 001e 5300     		.ascii	"S\000"
 906 0020 00000000 		.space	8
 906      00000000 
 907 0028 3200     		.ascii	"2\000"
 908 002a 00000000 		.space	8
 908      00000000 
 909 0032 4E4200   		.ascii	"NB\000"
ARM GAS  C:\Users\diego\AppData\Local\Temp\cc8mzuTC.s 			page 23


 910 0035 00000000 		.space	7
 910      000000
 911 003c 4E4D00   		.ascii	"NM\000"
 912 003f 00000000 		.space	7
 912      000000
 913 0046 4200     		.ascii	"B\000"
 914 0048 00000000 		.space	8
 914      00000000 
 915 0050 5300     		.ascii	"S\000"
 916 0052 00000000 		.space	8
 916      00000000 
 917 005a 3200     		.ascii	"2\000"
 918 005c 00000000 		.space	8
 918      00000000 
 919 0064 4E4200   		.ascii	"NB\000"
 920 0067 00000000 		.space	7
 920      000000
 921 006e 4E5300   		.ascii	"NS\000"
 922 0071 00000000 		.space	7
 922      000000
 923 0078 4200     		.ascii	"B\000"
 924 007a 00000000 		.space	8
 924      00000000 
 925 0082 5300     		.ascii	"S\000"
 926 0084 00000000 		.space	8
 926      00000000 
 927 008c 3200     		.ascii	"2\000"
 928 008e 00000000 		.space	8
 928      00000000 
 929 0096 4E4200   		.ascii	"NB\000"
 930 0099 00000000 		.space	7
 930      000000
 931 00a0 5A4F00   		.ascii	"ZO\000"
 932 00a3 00000000 		.space	7
 932      000000
 933 00aa 4200     		.ascii	"B\000"
 934 00ac 00000000 		.space	8
 934      00000000 
 935 00b4 5300     		.ascii	"S\000"
 936 00b6 00000000 		.space	8
 936      00000000 
 937 00be 3200     		.ascii	"2\000"
 938 00c0 00000000 		.space	8
 938      00000000 
 939 00c8 4E4200   		.ascii	"NB\000"
 940 00cb 00000000 		.space	7
 940      000000
 941 00d2 505300   		.ascii	"PS\000"
 942 00d5 00000000 		.space	7
 942      000000
 943 00dc 4200     		.ascii	"B\000"
 944 00de 00000000 		.space	8
 944      00000000 
 945 00e6 5300     		.ascii	"S\000"
 946 00e8 00000000 		.space	8
 946      00000000 
 947 00f0 3200     		.ascii	"2\000"
ARM GAS  C:\Users\diego\AppData\Local\Temp\cc8mzuTC.s 			page 24


 948 00f2 00000000 		.space	8
 948      00000000 
 949 00fa 4E4200   		.ascii	"NB\000"
 950 00fd 00000000 		.space	7
 950      000000
 951 0104 504D00   		.ascii	"PM\000"
 952 0107 00000000 		.space	7
 952      000000
 953 010e 4200     		.ascii	"B\000"
 954 0110 00000000 		.space	8
 954      00000000 
 955 0118 5300     		.ascii	"S\000"
 956 011a 00000000 		.space	8
 956      00000000 
 957 0122 3200     		.ascii	"2\000"
 958 0124 00000000 		.space	8
 958      00000000 
 959 012c 4E4200   		.ascii	"NB\000"
 960 012f 00000000 		.space	7
 960      000000
 961 0136 504200   		.ascii	"PB\000"
 962 0139 00000000 		.space	7
 962      000000
 963 0140 4200     		.ascii	"B\000"
 964 0142 00000000 		.space	8
 964      00000000 
 965 014a 5300     		.ascii	"S\000"
 966 014c 00000000 		.space	8
 966      00000000 
 967 0154 3200     		.ascii	"2\000"
 968 0156 00000000 		.space	8
 968      00000000 
 969 015e 4E4D00   		.ascii	"NM\000"
 970 0161 00000000 		.space	7
 970      000000
 971 0168 4E4200   		.ascii	"NB\000"
 972 016b 00000000 		.space	7
 972      000000
 973 0172 5300     		.ascii	"S\000"
 974 0174 00000000 		.space	8
 974      00000000 
 975 017c 4200     		.ascii	"B\000"
 976 017e 00000000 		.space	8
 976      00000000 
 977 0186 3300     		.ascii	"3\000"
 978 0188 00000000 		.space	8
 978      00000000 
 979 0190 4E4D00   		.ascii	"NM\000"
 980 0193 00000000 		.space	7
 980      000000
 981 019a 4E4D00   		.ascii	"NM\000"
 982 019d 00000000 		.space	7
 982      000000
 983 01a4 4200     		.ascii	"B\000"
 984 01a6 00000000 		.space	8
 984      00000000 
 985 01ae 4200     		.ascii	"B\000"
ARM GAS  C:\Users\diego\AppData\Local\Temp\cc8mzuTC.s 			page 25


 986 01b0 00000000 		.space	8
 986      00000000 
 987 01b8 3300     		.ascii	"3\000"
 988 01ba 00000000 		.space	8
 988      00000000 
 989 01c2 4E4D00   		.ascii	"NM\000"
 990 01c5 00000000 		.space	7
 990      000000
 991 01cc 4E5300   		.ascii	"NS\000"
 992 01cf 00000000 		.space	7
 992      000000
 993 01d6 4200     		.ascii	"B\000"
 994 01d8 00000000 		.space	8
 994      00000000 
 995 01e0 5300     		.ascii	"S\000"
 996 01e2 00000000 		.space	8
 996      00000000 
 997 01ea 3200     		.ascii	"2\000"
 998 01ec 00000000 		.space	8
 998      00000000 
 999 01f4 4E4D00   		.ascii	"NM\000"
 1000 01f7 00000000 		.space	7
 1000      000000
 1001 01fe 5A4F00   		.ascii	"ZO\000"
 1002 0201 00000000 		.space	7
 1002      000000
 1003 0208 4200     		.ascii	"B\000"
 1004 020a 00000000 		.space	8
 1004      00000000 
 1005 0212 5300     		.ascii	"S\000"
 1006 0214 00000000 		.space	8
 1006      00000000 
 1007 021c 3200     		.ascii	"2\000"
 1008 021e 00000000 		.space	8
 1008      00000000 
 1009 0226 4E4D00   		.ascii	"NM\000"
 1010 0229 00000000 		.space	7
 1010      000000
 1011 0230 505300   		.ascii	"PS\000"
 1012 0233 00000000 		.space	7
 1012      000000
 1013 023a 4200     		.ascii	"B\000"
 1014 023c 00000000 		.space	8
 1014      00000000 
 1015 0244 5300     		.ascii	"S\000"
 1016 0246 00000000 		.space	8
 1016      00000000 
 1017 024e 3200     		.ascii	"2\000"
 1018 0250 00000000 		.space	8
 1018      00000000 
 1019 0258 4E4D00   		.ascii	"NM\000"
 1020 025b 00000000 		.space	7
 1020      000000
 1021 0262 504D00   		.ascii	"PM\000"
 1022 0265 00000000 		.space	7
 1022      000000
 1023 026c 4200     		.ascii	"B\000"
ARM GAS  C:\Users\diego\AppData\Local\Temp\cc8mzuTC.s 			page 26


 1024 026e 00000000 		.space	8
 1024      00000000 
 1025 0276 4200     		.ascii	"B\000"
 1026 0278 00000000 		.space	8
 1026      00000000 
 1027 0280 3300     		.ascii	"3\000"
 1028 0282 00000000 		.space	8
 1028      00000000 
 1029 028a 4E4D00   		.ascii	"NM\000"
 1030 028d 00000000 		.space	7
 1030      000000
 1031 0294 504200   		.ascii	"PB\000"
 1032 0297 00000000 		.space	7
 1032      000000
 1033 029e 5300     		.ascii	"S\000"
 1034 02a0 00000000 		.space	8
 1034      00000000 
 1035 02a8 4200     		.ascii	"B\000"
 1036 02aa 00000000 		.space	8
 1036      00000000 
 1037 02b2 3300     		.ascii	"3\000"
 1038 02b4 00000000 		.space	8
 1038      00000000 
 1039 02bc 4E5300   		.ascii	"NS\000"
 1040 02bf 00000000 		.space	7
 1040      000000
 1041 02c6 4E4200   		.ascii	"NB\000"
 1042 02c9 00000000 		.space	7
 1042      000000
 1043 02d0 5300     		.ascii	"S\000"
 1044 02d2 00000000 		.space	8
 1044      00000000 
 1045 02da 4200     		.ascii	"B\000"
 1046 02dc 00000000 		.space	8
 1046      00000000 
 1047 02e4 3400     		.ascii	"4\000"
 1048 02e6 00000000 		.space	8
 1048      00000000 
 1049 02ee 4E5300   		.ascii	"NS\000"
 1050 02f1 00000000 		.space	7
 1050      000000
 1051 02f8 4E4D00   		.ascii	"NM\000"
 1052 02fb 00000000 		.space	7
 1052      000000
 1053 0302 5300     		.ascii	"S\000"
 1054 0304 00000000 		.space	8
 1054      00000000 
 1055 030c 4200     		.ascii	"B\000"
 1056 030e 00000000 		.space	8
 1056      00000000 
 1057 0316 3300     		.ascii	"3\000"
 1058 0318 00000000 		.space	8
 1058      00000000 
 1059 0320 4E5300   		.ascii	"NS\000"
 1060 0323 00000000 		.space	7
 1060      000000
 1061 032a 4E5300   		.ascii	"NS\000"
ARM GAS  C:\Users\diego\AppData\Local\Temp\cc8mzuTC.s 			page 27


 1062 032d 00000000 		.space	7
 1062      000000
 1063 0334 4200     		.ascii	"B\000"
 1064 0336 00000000 		.space	8
 1064      00000000 
 1065 033e 4200     		.ascii	"B\000"
 1066 0340 00000000 		.space	8
 1066      00000000 
 1067 0348 3300     		.ascii	"3\000"
 1068 034a 00000000 		.space	8
 1068      00000000 
 1069 0352 4E5300   		.ascii	"NS\000"
 1070 0355 00000000 		.space	7
 1070      000000
 1071 035c 5A4F00   		.ascii	"ZO\000"
 1072 035f 00000000 		.space	7
 1072      000000
 1073 0366 4200     		.ascii	"B\000"
 1074 0368 00000000 		.space	8
 1074      00000000 
 1075 0370 5300     		.ascii	"S\000"
 1076 0372 00000000 		.space	8
 1076      00000000 
 1077 037a 3200     		.ascii	"2\000"
 1078 037c 00000000 		.space	8
 1078      00000000 
 1079 0384 4E5300   		.ascii	"NS\000"
 1080 0387 00000000 		.space	7
 1080      000000
 1081 038e 505300   		.ascii	"PS\000"
 1082 0391 00000000 		.space	7
 1082      000000
 1083 0398 4200     		.ascii	"B\000"
 1084 039a 00000000 		.space	8
 1084      00000000 
 1085 03a2 4200     		.ascii	"B\000"
 1086 03a4 00000000 		.space	8
 1086      00000000 
 1087 03ac 3300     		.ascii	"3\000"
 1088 03ae 00000000 		.space	8
 1088      00000000 
 1089 03b6 4E5300   		.ascii	"NS\000"
 1090 03b9 00000000 		.space	7
 1090      000000
 1091 03c0 504D00   		.ascii	"PM\000"
 1092 03c3 00000000 		.space	7
 1092      000000
 1093 03ca 5300     		.ascii	"S\000"
 1094 03cc 00000000 		.space	8
 1094      00000000 
 1095 03d4 4200     		.ascii	"B\000"
 1096 03d6 00000000 		.space	8
 1096      00000000 
 1097 03de 3300     		.ascii	"3\000"
 1098 03e0 00000000 		.space	8
 1098      00000000 
 1099 03e8 4E5300   		.ascii	"NS\000"
ARM GAS  C:\Users\diego\AppData\Local\Temp\cc8mzuTC.s 			page 28


 1100 03eb 00000000 		.space	7
 1100      000000
 1101 03f2 504200   		.ascii	"PB\000"
 1102 03f5 00000000 		.space	7
 1102      000000
 1103 03fc 5300     		.ascii	"S\000"
 1104 03fe 00000000 		.space	8
 1104      00000000 
 1105 0406 4200     		.ascii	"B\000"
 1106 0408 00000000 		.space	8
 1106      00000000 
 1107 0410 3400     		.ascii	"4\000"
 1108 0412 00000000 		.space	8
 1108      00000000 
 1109 041a 5A4F00   		.ascii	"ZO\000"
 1110 041d 00000000 		.space	7
 1110      000000
 1111 0424 4E4200   		.ascii	"NB\000"
 1112 0427 00000000 		.space	7
 1112      000000
 1113 042e 5300     		.ascii	"S\000"
 1114 0430 00000000 		.space	8
 1114      00000000 
 1115 0438 4200     		.ascii	"B\000"
 1116 043a 00000000 		.space	8
 1116      00000000 
 1117 0442 3500     		.ascii	"5\000"
 1118 0444 00000000 		.space	8
 1118      00000000 
 1119 044c 5A4F00   		.ascii	"ZO\000"
 1120 044f 00000000 		.space	7
 1120      000000
 1121 0456 4E4D00   		.ascii	"NM\000"
 1122 0459 00000000 		.space	7
 1122      000000
 1123 0460 5300     		.ascii	"S\000"
 1124 0462 00000000 		.space	8
 1124      00000000 
 1125 046a 4200     		.ascii	"B\000"
 1126 046c 00000000 		.space	8
 1126      00000000 
 1127 0474 3400     		.ascii	"4\000"
 1128 0476 00000000 		.space	8
 1128      00000000 
 1129 047e 5A4F00   		.ascii	"ZO\000"
 1130 0481 00000000 		.space	7
 1130      000000
 1131 0488 4E5300   		.ascii	"NS\000"
 1132 048b 00000000 		.space	7
 1132      000000
 1133 0492 5300     		.ascii	"S\000"
 1134 0494 00000000 		.space	8
 1134      00000000 
 1135 049c 4200     		.ascii	"B\000"
 1136 049e 00000000 		.space	8
 1136      00000000 
 1137 04a6 3300     		.ascii	"3\000"
ARM GAS  C:\Users\diego\AppData\Local\Temp\cc8mzuTC.s 			page 29


 1138 04a8 00000000 		.space	8
 1138      00000000 
 1139 04b0 5A4F00   		.ascii	"ZO\000"
 1140 04b3 00000000 		.space	7
 1140      000000
 1141 04ba 5A4F00   		.ascii	"ZO\000"
 1142 04bd 00000000 		.space	7
 1142      000000
 1143 04c4 4200     		.ascii	"B\000"
 1144 04c6 00000000 		.space	8
 1144      00000000 
 1145 04ce 4200     		.ascii	"B\000"
 1146 04d0 00000000 		.space	8
 1146      00000000 
 1147 04d8 3300     		.ascii	"3\000"
 1148 04da 00000000 		.space	8
 1148      00000000 
 1149 04e2 5A4F00   		.ascii	"ZO\000"
 1150 04e5 00000000 		.space	7
 1150      000000
 1151 04ec 505300   		.ascii	"PS\000"
 1152 04ef 00000000 		.space	7
 1152      000000
 1153 04f6 5300     		.ascii	"S\000"
 1154 04f8 00000000 		.space	8
 1154      00000000 
 1155 0500 4200     		.ascii	"B\000"
 1156 0502 00000000 		.space	8
 1156      00000000 
 1157 050a 3300     		.ascii	"3\000"
 1158 050c 00000000 		.space	8
 1158      00000000 
 1159 0514 5A4F00   		.ascii	"ZO\000"
 1160 0517 00000000 		.space	7
 1160      000000
 1161 051e 504D00   		.ascii	"PM\000"
 1162 0521 00000000 		.space	7
 1162      000000
 1163 0528 5300     		.ascii	"S\000"
 1164 052a 00000000 		.space	8
 1164      00000000 
 1165 0532 4200     		.ascii	"B\000"
 1166 0534 00000000 		.space	8
 1166      00000000 
 1167 053c 3400     		.ascii	"4\000"
 1168 053e 00000000 		.space	8
 1168      00000000 
 1169 0546 5A4F00   		.ascii	"ZO\000"
 1170 0549 00000000 		.space	7
 1170      000000
 1171 0550 504200   		.ascii	"PB\000"
 1172 0553 00000000 		.space	7
 1172      000000
 1173 055a 5300     		.ascii	"S\000"
 1174 055c 00000000 		.space	8
 1174      00000000 
 1175 0564 4200     		.ascii	"B\000"
ARM GAS  C:\Users\diego\AppData\Local\Temp\cc8mzuTC.s 			page 30


 1176 0566 00000000 		.space	8
 1176      00000000 
 1177 056e 3500     		.ascii	"5\000"
 1178 0570 00000000 		.space	8
 1178      00000000 
 1179 0578 505300   		.ascii	"PS\000"
 1180 057b 00000000 		.space	7
 1180      000000
 1181 0582 4E4200   		.ascii	"NB\000"
 1182 0585 00000000 		.space	7
 1182      000000
 1183 058c 5300     		.ascii	"S\000"
 1184 058e 00000000 		.space	8
 1184      00000000 
 1185 0596 4200     		.ascii	"B\000"
 1186 0598 00000000 		.space	8
 1186      00000000 
 1187 05a0 3400     		.ascii	"4\000"
 1188 05a2 00000000 		.space	8
 1188      00000000 
 1189 05aa 505300   		.ascii	"PS\000"
 1190 05ad 00000000 		.space	7
 1190      000000
 1191 05b4 4E4D00   		.ascii	"NM\000"
 1192 05b7 00000000 		.space	7
 1192      000000
 1193 05be 5300     		.ascii	"S\000"
 1194 05c0 00000000 		.space	8
 1194      00000000 
 1195 05c8 4200     		.ascii	"B\000"
 1196 05ca 00000000 		.space	8
 1196      00000000 
 1197 05d2 3300     		.ascii	"3\000"
 1198 05d4 00000000 		.space	8
 1198      00000000 
 1199 05dc 505300   		.ascii	"PS\000"
 1200 05df 00000000 		.space	7
 1200      000000
 1201 05e6 4E5300   		.ascii	"NS\000"
 1202 05e9 00000000 		.space	7
 1202      000000
 1203 05f0 4200     		.ascii	"B\000"
 1204 05f2 00000000 		.space	8
 1204      00000000 
 1205 05fa 4200     		.ascii	"B\000"
 1206 05fc 00000000 		.space	8
 1206      00000000 
 1207 0604 3300     		.ascii	"3\000"
 1208 0606 00000000 		.space	8
 1208      00000000 
 1209 060e 505300   		.ascii	"PS\000"
 1210 0611 00000000 		.space	7
 1210      000000
 1211 0618 5A4F00   		.ascii	"ZO\000"
 1212 061b 00000000 		.space	7
 1212      000000
 1213 0622 4200     		.ascii	"B\000"
ARM GAS  C:\Users\diego\AppData\Local\Temp\cc8mzuTC.s 			page 31


 1214 0624 00000000 		.space	8
 1214      00000000 
 1215 062c 5300     		.ascii	"S\000"
 1216 062e 00000000 		.space	8
 1216      00000000 
 1217 0636 3200     		.ascii	"2\000"
 1218 0638 00000000 		.space	8
 1218      00000000 
 1219 0640 505300   		.ascii	"PS\000"
 1220 0643 00000000 		.space	7
 1220      000000
 1221 064a 505300   		.ascii	"PS\000"
 1222 064d 00000000 		.space	7
 1222      000000
 1223 0654 4200     		.ascii	"B\000"
 1224 0656 00000000 		.space	8
 1224      00000000 
 1225 065e 4200     		.ascii	"B\000"
 1226 0660 00000000 		.space	8
 1226      00000000 
 1227 0668 3300     		.ascii	"3\000"
 1228 066a 00000000 		.space	8
 1228      00000000 
 1229 0672 505300   		.ascii	"PS\000"
 1230 0675 00000000 		.space	7
 1230      000000
 1231 067c 504D00   		.ascii	"PM\000"
 1232 067f 00000000 		.space	7
 1232      000000
 1233 0686 5300     		.ascii	"S\000"
 1234 0688 00000000 		.space	8
 1234      00000000 
 1235 0690 4200     		.ascii	"B\000"
 1236 0692 00000000 		.space	8
 1236      00000000 
 1237 069a 3300     		.ascii	"3\000"
 1238 069c 00000000 		.space	8
 1238      00000000 
 1239 06a4 505300   		.ascii	"PS\000"
 1240 06a7 00000000 		.space	7
 1240      000000
 1241 06ae 504200   		.ascii	"PB\000"
 1242 06b1 00000000 		.space	7
 1242      000000
 1243 06b8 5300     		.ascii	"S\000"
 1244 06ba 00000000 		.space	8
 1244      00000000 
 1245 06c2 4200     		.ascii	"B\000"
 1246 06c4 00000000 		.space	8
 1246      00000000 
 1247 06cc 3400     		.ascii	"4\000"
 1248 06ce 00000000 		.space	8
 1248      00000000 
 1249 06d6 504D00   		.ascii	"PM\000"
 1250 06d9 00000000 		.space	7
 1250      000000
 1251 06e0 4E4200   		.ascii	"NB\000"
ARM GAS  C:\Users\diego\AppData\Local\Temp\cc8mzuTC.s 			page 32


 1252 06e3 00000000 		.space	7
 1252      000000
 1253 06ea 5300     		.ascii	"S\000"
 1254 06ec 00000000 		.space	8
 1254      00000000 
 1255 06f4 4200     		.ascii	"B\000"
 1256 06f6 00000000 		.space	8
 1256      00000000 
 1257 06fe 3300     		.ascii	"3\000"
 1258 0700 00000000 		.space	8
 1258      00000000 
 1259 0708 504D00   		.ascii	"PM\000"
 1260 070b 00000000 		.space	7
 1260      000000
 1261 0712 4E4D00   		.ascii	"NM\000"
 1262 0715 00000000 		.space	7
 1262      000000
 1263 071c 4200     		.ascii	"B\000"
 1264 071e 00000000 		.space	8
 1264      00000000 
 1265 0726 4200     		.ascii	"B\000"
 1266 0728 00000000 		.space	8
 1266      00000000 
 1267 0730 3300     		.ascii	"3\000"
 1268 0732 00000000 		.space	8
 1268      00000000 
 1269 073a 504D00   		.ascii	"PM\000"
 1270 073d 00000000 		.space	7
 1270      000000
 1271 0744 4E5300   		.ascii	"NS\000"
 1272 0747 00000000 		.space	7
 1272      000000
 1273 074e 4200     		.ascii	"B\000"
 1274 0750 00000000 		.space	8
 1274      00000000 
 1275 0758 5300     		.ascii	"S\000"
 1276 075a 00000000 		.space	8
 1276      00000000 
 1277 0762 3200     		.ascii	"2\000"
 1278 0764 00000000 		.space	8
 1278      00000000 
 1279 076c 504D00   		.ascii	"PM\000"
 1280 076f 00000000 		.space	7
 1280      000000
 1281 0776 5A4F00   		.ascii	"ZO\000"
 1282 0779 00000000 		.space	7
 1282      000000
 1283 0780 4200     		.ascii	"B\000"
 1284 0782 00000000 		.space	8
 1284      00000000 
 1285 078a 5300     		.ascii	"S\000"
 1286 078c 00000000 		.space	8
 1286      00000000 
 1287 0794 3200     		.ascii	"2\000"
 1288 0796 00000000 		.space	8
 1288      00000000 
 1289 079e 504D00   		.ascii	"PM\000"
ARM GAS  C:\Users\diego\AppData\Local\Temp\cc8mzuTC.s 			page 33


 1290 07a1 00000000 		.space	7
 1290      000000
 1291 07a8 505300   		.ascii	"PS\000"
 1292 07ab 00000000 		.space	7
 1292      000000
 1293 07b2 4200     		.ascii	"B\000"
 1294 07b4 00000000 		.space	8
 1294      00000000 
 1295 07bc 5300     		.ascii	"S\000"
 1296 07be 00000000 		.space	8
 1296      00000000 
 1297 07c6 3200     		.ascii	"2\000"
 1298 07c8 00000000 		.space	8
 1298      00000000 
 1299 07d0 504D00   		.ascii	"PM\000"
 1300 07d3 00000000 		.space	7
 1300      000000
 1301 07da 504D00   		.ascii	"PM\000"
 1302 07dd 00000000 		.space	7
 1302      000000
 1303 07e4 4200     		.ascii	"B\000"
 1304 07e6 00000000 		.space	8
 1304      00000000 
 1305 07ee 4200     		.ascii	"B\000"
 1306 07f0 00000000 		.space	8
 1306      00000000 
 1307 07f8 3300     		.ascii	"3\000"
 1308 07fa 00000000 		.space	8
 1308      00000000 
 1309 0802 504D00   		.ascii	"PM\000"
 1310 0805 00000000 		.space	7
 1310      000000
 1311 080c 504200   		.ascii	"PB\000"
 1312 080f 00000000 		.space	7
 1312      000000
 1313 0816 5300     		.ascii	"S\000"
 1314 0818 00000000 		.space	8
 1314      00000000 
 1315 0820 4200     		.ascii	"B\000"
 1316 0822 00000000 		.space	8
 1316      00000000 
 1317 082a 3300     		.ascii	"3\000"
 1318 082c 00000000 		.space	8
 1318      00000000 
 1319 0834 504200   		.ascii	"PB\000"
 1320 0837 00000000 		.space	7
 1320      000000
 1321 083e 4E4200   		.ascii	"NB\000"
 1322 0841 00000000 		.space	7
 1322      000000
 1323 0848 4200     		.ascii	"B\000"
 1324 084a 00000000 		.space	8
 1324      00000000 
 1325 0852 5300     		.ascii	"S\000"
 1326 0854 00000000 		.space	8
 1326      00000000 
 1327 085c 3200     		.ascii	"2\000"
ARM GAS  C:\Users\diego\AppData\Local\Temp\cc8mzuTC.s 			page 34


 1328 085e 00000000 		.space	8
 1328      00000000 
 1329 0866 504200   		.ascii	"PB\000"
 1330 0869 00000000 		.space	7
 1330      000000
 1331 0870 4E4D00   		.ascii	"NM\000"
 1332 0873 00000000 		.space	7
 1332      000000
 1333 087a 4200     		.ascii	"B\000"
 1334 087c 00000000 		.space	8
 1334      00000000 
 1335 0884 5300     		.ascii	"S\000"
 1336 0886 00000000 		.space	8
 1336      00000000 
 1337 088e 3200     		.ascii	"2\000"
 1338 0890 00000000 		.space	8
 1338      00000000 
 1339 0898 504200   		.ascii	"PB\000"
 1340 089b 00000000 		.space	7
 1340      000000
 1341 08a2 4E5300   		.ascii	"NS\000"
 1342 08a5 00000000 		.space	7
 1342      000000
 1343 08ac 4200     		.ascii	"B\000"
 1344 08ae 00000000 		.space	8
 1344      00000000 
 1345 08b6 5300     		.ascii	"S\000"
 1346 08b8 00000000 		.space	8
 1346      00000000 
 1347 08c0 3200     		.ascii	"2\000"
 1348 08c2 00000000 		.space	8
 1348      00000000 
 1349 08ca 504200   		.ascii	"PB\000"
 1350 08cd 00000000 		.space	7
 1350      000000
 1351 08d4 5A4F00   		.ascii	"ZO\000"
 1352 08d7 00000000 		.space	7
 1352      000000
 1353 08de 4200     		.ascii	"B\000"
 1354 08e0 00000000 		.space	8
 1354      00000000 
 1355 08e8 5300     		.ascii	"S\000"
 1356 08ea 00000000 		.space	8
 1356      00000000 
 1357 08f2 3200     		.ascii	"2\000"
 1358 08f4 00000000 		.space	8
 1358      00000000 
 1359 08fc 504200   		.ascii	"PB\000"
 1360 08ff 00000000 		.space	7
 1360      000000
 1361 0906 505300   		.ascii	"PS\000"
 1362 0909 00000000 		.space	7
 1362      000000
 1363 0910 4200     		.ascii	"B\000"
 1364 0912 00000000 		.space	8
 1364      00000000 
 1365 091a 5300     		.ascii	"S\000"
ARM GAS  C:\Users\diego\AppData\Local\Temp\cc8mzuTC.s 			page 35


 1366 091c 00000000 		.space	8
 1366      00000000 
 1367 0924 3200     		.ascii	"2\000"
 1368 0926 00000000 		.space	8
 1368      00000000 
 1369 092e 504200   		.ascii	"PB\000"
 1370 0931 00000000 		.space	7
 1370      000000
 1371 0938 504D00   		.ascii	"PM\000"
 1372 093b 00000000 		.space	7
 1372      000000
 1373 0942 4200     		.ascii	"B\000"
 1374 0944 00000000 		.space	8
 1374      00000000 
 1375 094c 5300     		.ascii	"S\000"
 1376 094e 00000000 		.space	8
 1376      00000000 
 1377 0956 3200     		.ascii	"2\000"
 1378 0958 00000000 		.space	8
 1378      00000000 
 1379 0960 504200   		.ascii	"PB\000"
 1380 0963 00000000 		.space	7
 1380      000000
 1381 096a 504200   		.ascii	"PB\000"
 1382 096d 00000000 		.space	7
 1382      000000
 1383 0974 4200     		.ascii	"B\000"
 1384 0976 00000000 		.space	8
 1384      00000000 
 1385 097e 5300     		.ascii	"S\000"
 1386 0980 00000000 		.space	8
 1386      00000000 
 1387 0988 3200     		.ascii	"2\000"
 1388 098a 00000000 		.space	8
 1388      00000000 
 1389 0992 0000     		.space	2
 1390              		.type	motor, %object
 1391              		.size	motor, 228
 1392              	motor:
 1393 0994 00000000 		.word	0
 1394 0998 00000000 		.space	8
 1394      00000000 
 1395 09a0 00000000 		.word	0
 1396 09a4 00000000 		.word	0
 1397 09a8 0AD7233C 		.word	1008981770
 1398 09ac 6ABC743E 		.word	1047837802
 1399 09b0 00000000 		.word	0
 1400 09b4 60E5503D 		.word	1028711776
 1401 09b8 0000C842 		.word	1120403456
 1402 09bc 00009643 		.word	1133903872
 1403 09c0 00000000 		.word	0
 1404 09c4 00000000 		.word	0
 1405 09c8 00000000 		.space	4
 1406 09cc 0000     		.short	0
 1407 09ce 0000     		.short	0
 1408 09d0 0000     		.short	0
 1409 09d2 0000     		.space	2
ARM GAS  C:\Users\diego\AppData\Local\Temp\cc8mzuTC.s 			page 36


 1410 09d4 00       		.byte	0
 1411 09d5 000000   		.space	3
 1412 09d8 67D2DE3C 		.word	1021235815
 1413 09dc 0000F841 		.word	1106771968
 1414 09e0 00000000 		.word	0
 1415 09e4 00000000 		.space	8
 1415      00000000 
 1416 09ec 00000000 		.word	0
 1417 09f0 00000000 		.word	0
 1418 09f4 0AD7233C 		.word	1008981770
 1419 09f8 6ABC743E 		.word	1047837802
 1420 09fc 00000000 		.word	0
 1421 0a00 60E5503D 		.word	1028711776
 1422 0a04 0000C842 		.word	1120403456
 1423 0a08 00009643 		.word	1133903872
 1424 0a0c 00000000 		.word	0
 1425 0a10 00000000 		.word	0
 1426 0a14 00000000 		.space	4
 1427 0a18 0000     		.short	0
 1428 0a1a 0000     		.short	0
 1429 0a1c 0000     		.short	0
 1430 0a1e 0000     		.space	2
 1431 0a20 00       		.byte	0
 1432 0a21 000000   		.space	3
 1433 0a24 67D2DE3C 		.word	1021235815
 1434 0a28 0000F841 		.word	1106771968
 1435 0a2c 00000000 		.word	0
 1436 0a30 00000000 		.space	8
 1436      00000000 
 1437 0a38 00000000 		.word	0
 1438 0a3c 00000000 		.word	0
 1439 0a40 0AD7233C 		.word	1008981770
 1440 0a44 6ABC743E 		.word	1047837802
 1441 0a48 00000000 		.word	0
 1442 0a4c 60E5503D 		.word	1028711776
 1443 0a50 0000C842 		.word	1120403456
 1444 0a54 00009643 		.word	1133903872
 1445 0a58 00000000 		.word	0
 1446 0a5c 00000000 		.word	0
 1447 0a60 00000000 		.space	4
 1448 0a64 0000     		.short	0
 1449 0a66 0000     		.short	0
 1450 0a68 0000     		.short	0
 1451 0a6a 0000     		.space	2
 1452 0a6c 00       		.byte	0
 1453 0a6d 000000   		.space	3
 1454 0a70 67D2DE3C 		.word	1021235815
 1455 0a74 0000F841 		.word	1106771968
 1456              		.type	Ki_max, %object
 1457              		.size	Ki_max, 4
 1458              	Ki_max:
 1459 0a78 60E5503D 		.word	1028711776
 1460              		.type	Kp_max, %object
 1461              		.size	Kp_max, 4
 1462              	Kp_max:
 1463 0a7c 6ABC743E 		.word	1047837802
 1464              		.section	.rodata.str1.4,"aMS",%progbits,1
ARM GAS  C:\Users\diego\AppData\Local\Temp\cc8mzuTC.s 			page 37


 1465              		.align	2
 1466              	.LC0:
 1467 0000 4E4200   		.ascii	"NB\000"
 1468 0003 00       		.space	1
 1469              	.LC1:
 1470 0004 4E4D00   		.ascii	"NM\000"
 1471 0007 00       		.space	1
 1472              	.LC2:
 1473 0008 4E5300   		.ascii	"NS\000"
 1474 000b 00       		.space	1
 1475              	.LC3:
 1476 000c 5A4F00   		.ascii	"ZO\000"
 1477 000f 00       		.space	1
 1478              	.LC4:
 1479 0010 505300   		.ascii	"PS\000"
 1480 0013 00       		.space	1
 1481              	.LC5:
 1482 0014 504D00   		.ascii	"PM\000"
 1483 0017 00       		.space	1
 1484              	.LC6:
 1485 0018 504200   		.ascii	"PB\000"
 1486 001b 00       		.space	1
 1487              	.LC7:
 1488 001c 5300     		.ascii	"S\000"
 1489 001e 0000     		.space	2
 1490              	.LC8:
 1491 0020 4200     		.ascii	"B\000"
 1492 0022 0000     		.space	2
 1493              	.LC9:
 1494 0024 3200     		.ascii	"2\000"
 1495 0026 0000     		.space	2
 1496              	.LC10:
 1497 0028 3300     		.ascii	"3\000"
 1498 002a 0000     		.space	2
 1499              	.LC11:
 1500 002c 3400     		.ascii	"4\000"
 1501 002e 0000     		.space	2
 1502              	.LC12:
 1503 0030 3500     		.ascii	"5\000"
 1504 0032 0000     		.space	2
 1505              	.LC13:
 1506 0034 6572726F 		.ascii	"error\000"
 1506      7200
 1507 003a 0000     		.space	2
 1508              	.LC14:
 1509 003c 64657272 		.ascii	"derror\000"
 1509      6F7200
 1510 0043 00       		.space	1
 1511              	.LC15:
 1512 0044 4B7000   		.ascii	"Kp\000"
 1513 0047 00       		.space	1
 1514              	.LC16:
 1515 0048 4B6400   		.ascii	"Kd\000"
 1516 004b 00       		.space	1
 1517              	.LC17:
 1518 004c 616C7068 		.ascii	"alpha\000"
 1518      6100
ARM GAS  C:\Users\diego\AppData\Local\Temp\cc8mzuTC.s 			page 38


 1519              		.bss
 1520              		.align	2
 1521              		.set	.LANCHOR1,. + 0
 1522              		.type	mem_idx, %object
 1523              		.size	mem_idx, 1
 1524              	mem_idx:
 1525 0000 00       		.space	1
 1526 0001 000000   		.space	3
 1527              		.type	memoria, %object
 1528              		.size	memoria, 1200
 1529              	memoria:
 1530 0004 00000000 		.space	1200
 1530      00000000 
 1530      00000000 
 1530      00000000 
 1530      00000000 
 1531              		.type	x, %object
 1532              		.size	x, 16
 1533              	x:
 1534 04b4 00000000 		.space	16
 1534      00000000 
 1534      00000000 
 1534      00000000 
 1535              		.type	y, %object
 1536              		.size	y, 16
 1537              	y:
 1538 04c4 00000000 		.space	16
 1538      00000000 
 1538      00000000 
 1538      00000000 
 1539              		.type	Ki_min, %object
 1540              		.size	Ki_min, 4
 1541              	Ki_min:
 1542 04d4 00000000 		.space	4
 1543              		.type	Kp_min, %object
 1544              		.size	Kp_min, 4
 1545              	Kp_min:
 1546 04d8 00000000 		.space	4
 1547              		.text
 1548              	.Letext0:
 1549              		.file 3 "c:\\program files (x86)\\cypress\\psoc creator\\4.3\\psoc creator\\import\\gnu\\arm\\5.4.
 1550              		.file 4 "c:\\program files (x86)\\cypress\\psoc creator\\4.3\\psoc creator\\import\\gnu\\arm\\5.4.
 1551              		.file 5 "Generated_Source\\PSoC5/cytypes.h"
 1552              		.file 6 "motor.h"
 1553              		.file 7 "fuzzy_set.h"
 1554              		.file 8 "linguistic_variable.h"
 1555              		.file 9 "fis.h"
 1556              		.file 10 "Generated_Source\\PSoC5/core_cm3.h"
 1557              		.file 11 "Generated_Source\\PSoC5/QuadDec1.h"
 1558              		.file 12 "Generated_Source\\PSoC5/QuadDec2.h"
 1559              		.file 13 "Generated_Source\\PSoC5/QuadDec3.h"
 1560              		.file 14 "aux_functions.h"
 1561              		.file 15 "Generated_Source\\PSoC5/dir1.h"
 1562              		.file 16 "Generated_Source\\PSoC5/BlocoPWM1.h"
 1563              		.file 17 "Generated_Source\\PSoC5/dir2.h"
 1564              		.file 18 "Generated_Source\\PSoC5/BlocoPWM2.h"
 1565              		.file 19 "Generated_Source\\PSoC5/dir3.h"
ARM GAS  C:\Users\diego\AppData\Local\Temp\cc8mzuTC.s 			page 39


 1566              		.file 20 "Generated_Source\\PSoC5/BlocoPWM3.h"
 1567              		.file 21 "defines.h"